
SolderingStation.elf:     file format elf32-avr

Sections:
Idx Name          Size      VMA       LMA       File off  Algn
  0 .data         00000046  00800100  00006b38  00006bcc  2**0
                  CONTENTS, ALLOC, LOAD, DATA
  1 .text         00006b38  00000000  00000000  00000094  2**1
                  CONTENTS, ALLOC, LOAD, READONLY, CODE
  2 .bss          00000429  00800146  00800146  00006c12  2**0
                  ALLOC
  3 .comment      00000030  00000000  00000000  00006c12  2**0
                  CONTENTS, READONLY
  4 .note.gnu.avr.deviceinfo 00000040  00000000  00000000  00006c44  2**2
                  CONTENTS, READONLY
  5 .debug_aranges 00000248  00000000  00000000  00006c84  2**0
                  CONTENTS, READONLY, DEBUGGING
  6 .debug_info   0000224e  00000000  00000000  00006ecc  2**0
                  CONTENTS, READONLY, DEBUGGING
  7 .debug_abbrev 00000cef  00000000  00000000  0000911a  2**0
                  CONTENTS, READONLY, DEBUGGING
  8 .debug_line   000021ef  00000000  00000000  00009e09  2**0
                  CONTENTS, READONLY, DEBUGGING
  9 .debug_frame  00000760  00000000  00000000  0000bff8  2**2
                  CONTENTS, READONLY, DEBUGGING
 10 .debug_str    00008bef  00000000  00000000  0000c758  2**0
                  CONTENTS, READONLY, DEBUGGING
 11 .debug_loc    00000f1c  00000000  00000000  00015347  2**0
                  CONTENTS, READONLY, DEBUGGING
 12 .debug_ranges 00000210  00000000  00000000  00016263  2**0
                  CONTENTS, READONLY, DEBUGGING
 13 .debug_macro  0000334c  00000000  00000000  00016473  2**0
                  CONTENTS, READONLY, DEBUGGING

Disassembly of section .text:

00000000 <__vectors>:
       0:	0c 94 49 2c 	jmp	0x5892	; 0x5892 <__ctors_end>
       4:	0c 94 66 2c 	jmp	0x58cc	; 0x58cc <__bad_interrupt>
       8:	0c 94 66 2c 	jmp	0x58cc	; 0x58cc <__bad_interrupt>
       c:	0c 94 66 2c 	jmp	0x58cc	; 0x58cc <__bad_interrupt>
      10:	0c 94 66 2c 	jmp	0x58cc	; 0x58cc <__bad_interrupt>
      14:	0c 94 66 2c 	jmp	0x58cc	; 0x58cc <__bad_interrupt>
      18:	0c 94 66 2c 	jmp	0x58cc	; 0x58cc <__bad_interrupt>
      1c:	0c 94 66 2c 	jmp	0x58cc	; 0x58cc <__bad_interrupt>
      20:	0c 94 66 2c 	jmp	0x58cc	; 0x58cc <__bad_interrupt>
      24:	0c 94 66 2c 	jmp	0x58cc	; 0x58cc <__bad_interrupt>
      28:	0c 94 66 2c 	jmp	0x58cc	; 0x58cc <__bad_interrupt>
      2c:	0c 94 66 2c 	jmp	0x58cc	; 0x58cc <__bad_interrupt>
      30:	0c 94 66 2c 	jmp	0x58cc	; 0x58cc <__bad_interrupt>
      34:	0c 94 66 2c 	jmp	0x58cc	; 0x58cc <__bad_interrupt>
      38:	0c 94 66 2c 	jmp	0x58cc	; 0x58cc <__bad_interrupt>
      3c:	0c 94 66 2c 	jmp	0x58cc	; 0x58cc <__bad_interrupt>
      40:	0c 94 66 2c 	jmp	0x58cc	; 0x58cc <__bad_interrupt>
      44:	0c 94 66 2c 	jmp	0x58cc	; 0x58cc <__bad_interrupt>
      48:	0c 94 66 2c 	jmp	0x58cc	; 0x58cc <__bad_interrupt>
      4c:	0c 94 66 2c 	jmp	0x58cc	; 0x58cc <__bad_interrupt>
      50:	0c 94 66 2c 	jmp	0x58cc	; 0x58cc <__bad_interrupt>
      54:	0c 94 66 2c 	jmp	0x58cc	; 0x58cc <__bad_interrupt>
      58:	0c 94 66 2c 	jmp	0x58cc	; 0x58cc <__bad_interrupt>
      5c:	0c 94 66 2c 	jmp	0x58cc	; 0x58cc <__bad_interrupt>
      60:	0c 94 66 2c 	jmp	0x58cc	; 0x58cc <__bad_interrupt>
      64:	0c 94 66 2c 	jmp	0x58cc	; 0x58cc <__bad_interrupt>

00000068 <__trampolines_end>:
      68:	22 00       	.word	0x0022	; ????
      6a:	1d 00       	.word	0x001d	; ????
      6c:	02 00       	.word	0x0002	; ????
      6e:	20 00       	.word	0x0020	; ????
      70:	7f 00       	.word	0x007f	; ????
      72:	a0 00       	.word	0x00a0	; ????
      74:	ff 00       	.word	0x00ff	; ????
      76:	08 00       	.word	0x0008	; ????
      78:	28 00       	.word	0x0028	; ????
      7a:	8e 04       	cpc	r8, r14
      7c:	0c 00       	.word	0x000c	; ????
      7e:	3c 00       	.word	0x003c	; ????
      80:	b6 04       	cpc	r11, r6
      82:	0f 00       	.word	0x000f	; ????
      84:	4b 00       	.word	0x004b	; ????
      86:	f2 04       	cpc	r15, r2
      88:	12 00       	.word	0x0012	; ????
      8a:	5a 00       	.word	0x005a	; ????
      8c:	3d 05       	cpc	r19, r13
      8e:	13 00       	.word	0x0013	; ????
      90:	5f 00       	.word	0x005f	; ????
      92:	97 05       	cpc	r25, r7
      94:	1a 00       	.word	0x001a	; ????
      96:	82 00       	.word	0x0082	; ????
      98:	f6 05       	cpc	r31, r6
      9a:	19 00       	.word	0x0019	; ????
      9c:	7d 00       	.word	0x007d	; ????
      9e:	78 06       	cpc	r7, r24
      a0:	08 00       	.word	0x0008	; ????
      a2:	28 00       	.word	0x0028	; ????
      a4:	f5 06       	cpc	r15, r21
      a6:	0b 00       	.word	0x000b	; ????
      a8:	37 00       	.word	0x0037	; ????
      aa:	1d 07       	cpc	r17, r29
      ac:	0b 00       	.word	0x000b	; ????
      ae:	37 00       	.word	0x0037	; ????
      b0:	54 07       	cpc	r21, r20
      b2:	12 00       	.word	0x0012	; ????
      b4:	5a 00       	.word	0x005a	; ????
      b6:	8b 07       	cpc	r24, r27
      b8:	12 00       	.word	0x0012	; ????
      ba:	5a 00       	.word	0x005a	; ????
      bc:	e5 07       	cpc	r30, r21
      be:	09 00       	.word	0x0009	; ????
      c0:	2d 00       	.word	0x002d	; ????
      c2:	3f 08       	sbc	r3, r15
      c4:	0b 00       	.word	0x000b	; ????
      c6:	37 00       	.word	0x0037	; ????
      c8:	6c 08       	sbc	r6, r12
      ca:	09 00       	.word	0x0009	; ????
      cc:	2d 00       	.word	0x002d	; ????
      ce:	a3 08       	sbc	r10, r3
      d0:	0e 00       	.word	0x000e	; ????
      d2:	46 00       	.word	0x0046	; ????
      d4:	d0 08       	sbc	r13, r0
      d6:	13 00       	.word	0x0013	; ????
      d8:	5f 00       	.word	0x005f	; ????
      da:	16 09       	sbc	r17, r6
      dc:	13 00       	.word	0x0013	; ????
      de:	5f 00       	.word	0x005f	; ????
      e0:	75 09       	sbc	r23, r5
      e2:	13 00       	.word	0x0013	; ????
      e4:	5f 00       	.word	0x005f	; ????
      e6:	d4 09       	sbc	r29, r4
      e8:	13 00       	.word	0x0013	; ????
      ea:	5f 00       	.word	0x005f	; ????
      ec:	33 0a       	sbc	r3, r19
      ee:	13 00       	.word	0x0013	; ????
      f0:	5f 00       	.word	0x005f	; ????
      f2:	92 0a       	sbc	r9, r18
      f4:	13 00       	.word	0x0013	; ????
      f6:	5f 00       	.word	0x005f	; ????
      f8:	f1 0a       	sbc	r15, r17
      fa:	13 00       	.word	0x0013	; ????
      fc:	5f 00       	.word	0x005f	; ????
      fe:	50 0b       	sbc	r21, r16
     100:	13 00       	.word	0x0013	; ????
     102:	5f 00       	.word	0x005f	; ????
     104:	af 0b       	sbc	r26, r31
     106:	13 00       	.word	0x0013	; ????
     108:	5f 00       	.word	0x005f	; ????
     10a:	0e 0c       	add	r0, r14
     10c:	13 00       	.word	0x0013	; ????
     10e:	5f 00       	.word	0x005f	; ????
     110:	6d 0c       	add	r6, r13
     112:	0a 00       	.word	0x000a	; ????
     114:	32 00       	.word	0x0032	; ????
     116:	cc 0c       	add	r12, r12
     118:	0a 00       	.word	0x000a	; ????
     11a:	32 00       	.word	0x0032	; ????
     11c:	fe 0c       	add	r15, r14
     11e:	12 00       	.word	0x0012	; ????
     120:	5a 00       	.word	0x005a	; ????
     122:	30 0d       	add	r19, r0
     124:	12 00       	.word	0x0012	; ????
     126:	5a 00       	.word	0x005a	; ????
     128:	8a 0d       	add	r24, r10
     12a:	12 00       	.word	0x0012	; ????
     12c:	5a 00       	.word	0x005a	; ????
     12e:	e4 0d       	add	r30, r4
     130:	11 00       	.word	0x0011	; ????
     132:	55 00       	.word	0x0055	; ????
     134:	3e 0e       	add	r3, r30
     136:	21 00       	.word	0x0021	; ????
     138:	a5 00       	.word	0x00a5	; ????
     13a:	93 0e       	add	r9, r19
     13c:	15 00       	.word	0x0015	; ????
     13e:	69 00       	.word	0x0069	; ????
     140:	38 0f       	add	r19, r24
     142:	14 00       	.word	0x0014	; ????
     144:	64 00       	.word	0x0064	; ????
     146:	a1 0f       	add	r26, r17
     148:	14 00       	.word	0x0014	; ????
     14a:	64 00       	.word	0x0064	; ????
     14c:	05 10       	cpse	r0, r5
     14e:	17 00       	.word	0x0017	; ????
     150:	73 00       	.word	0x0073	; ????
     152:	69 10       	cpse	r6, r9
     154:	12 00       	.word	0x0012	; ????
     156:	5a 00       	.word	0x005a	; ????
     158:	dc 10       	cpse	r13, r12
     15a:	11 00       	.word	0x0011	; ????
     15c:	55 00       	.word	0x0055	; ????
     15e:	36 11       	cpse	r19, r6
     160:	17 00       	.word	0x0017	; ????
     162:	73 00       	.word	0x0073	; ????
     164:	8b 11       	cpse	r24, r11
     166:	17 00       	.word	0x0017	; ????
     168:	73 00       	.word	0x0073	; ????
     16a:	fe 11       	cpse	r31, r14
     16c:	09 00       	.word	0x0009	; ????
     16e:	2d 00       	.word	0x002d	; ????
     170:	71 12       	cpse	r7, r17
     172:	0c 00       	.word	0x000c	; ????
     174:	3c 00       	.word	0x003c	; ????
     176:	9e 12       	cpse	r9, r30
     178:	13 00       	.word	0x0013	; ????
     17a:	5f 00       	.word	0x005f	; ????
     17c:	da 12       	cpse	r13, r26
     17e:	10 00       	.word	0x0010	; ????
     180:	50 00       	.word	0x0050	; ????
     182:	39 13       	cpse	r19, r25
     184:	20 00       	.word	0x0020	; ????
     186:	a0 00       	.word	0x00a0	; ????
     188:	89 13       	cpse	r24, r25
     18a:	18 00       	.word	0x0018	; ????
     18c:	78 00       	.word	0x0078	; ????
     18e:	29 14       	cp	r2, r9
     190:	19 00       	.word	0x0019	; ????
     192:	7d 00       	.word	0x007d	; ????
     194:	a1 14       	cp	r10, r1
     196:	13 00       	.word	0x0013	; ????
     198:	5f 00       	.word	0x005f	; ????
     19a:	1e 15       	cp	r17, r14
     19c:	19 00       	.word	0x0019	; ????
     19e:	7d 00       	.word	0x007d	; ????
     1a0:	7d 15       	cp	r23, r13
     1a2:	14 00       	.word	0x0014	; ????
     1a4:	64 00       	.word	0x0064	; ????
     1a6:	fa 15       	cp	r31, r10
     1a8:	11 00       	.word	0x0011	; ????
     1aa:	55 00       	.word	0x0055	; ????
     1ac:	5e 16       	cp	r5, r30
     1ae:	12 00       	.word	0x0012	; ????
     1b0:	5a 00       	.word	0x005a	; ????
     1b2:	b3 16       	cp	r11, r19
     1b4:	18 00       	.word	0x0018	; ????
     1b6:	78 00       	.word	0x0078	; ????
     1b8:	0d 17       	cp	r16, r29
     1ba:	15 00       	.word	0x0015	; ????
     1bc:	69 00       	.word	0x0069	; ????
     1be:	85 17       	cp	r24, r21
     1c0:	21 00       	.word	0x0021	; ????
     1c2:	a5 00       	.word	0x00a5	; ????
     1c4:	ee 17       	cp	r30, r30
     1c6:	13 00       	.word	0x0013	; ????
     1c8:	5f 00       	.word	0x005f	; ????
     1ca:	93 18       	sub	r9, r3
     1cc:	12 00       	.word	0x0012	; ????
     1ce:	5a 00       	.word	0x005a	; ????
     1d0:	f2 18       	sub	r15, r2
     1d2:	11 00       	.word	0x0011	; ????
     1d4:	55 00       	.word	0x0055	; ????
     1d6:	4c 19       	sub	r20, r12
     1d8:	0b 00       	.word	0x000b	; ????
     1da:	37 00       	.word	0x0037	; ????
     1dc:	a1 19       	sub	r26, r1
     1de:	0e 00       	.word	0x000e	; ????
     1e0:	46 00       	.word	0x0046	; ????
     1e2:	d8 19       	sub	r29, r8
     1e4:	0b 00       	.word	0x000b	; ????
     1e6:	37 00       	.word	0x0037	; ????
     1e8:	1e 1a       	sub	r1, r30
     1ea:	12 00       	.word	0x0012	; ????
     1ec:	5a 00       	.word	0x005a	; ????
     1ee:	55 1a       	sub	r5, r21
     1f0:	13 00       	.word	0x0013	; ????
     1f2:	5f 00       	.word	0x005f	; ????
     1f4:	af 1a       	sub	r10, r31
     1f6:	0b 00       	.word	0x000b	; ????
     1f8:	37 00       	.word	0x0037	; ????
     1fa:	0e 1b       	sub	r16, r30
     1fc:	12 00       	.word	0x0012	; ????
     1fe:	5a 00       	.word	0x005a	; ????
     200:	45 1b       	sub	r20, r21
     202:	13 00       	.word	0x0013	; ????
     204:	5f 00       	.word	0x005f	; ????
     206:	9f 1b       	sub	r25, r31
     208:	10 00       	.word	0x0010	; ????
     20a:	50 00       	.word	0x0050	; ????
     20c:	fe 1b       	sub	r31, r30
     20e:	13 00       	.word	0x0013	; ????
     210:	5f 00       	.word	0x005f	; ????
     212:	4e 1c       	adc	r4, r14
     214:	12 00       	.word	0x0012	; ????
     216:	5a 00       	.word	0x005a	; ????
     218:	ad 1c       	adc	r10, r13
     21a:	0b 00       	.word	0x000b	; ????
     21c:	37 00       	.word	0x0037	; ????
     21e:	07 1d       	adc	r16, r7
     220:	11 00       	.word	0x0011	; ????
     222:	55 00       	.word	0x0055	; ????
     224:	3e 1d       	adc	r19, r14
     226:	13 00       	.word	0x0013	; ????
     228:	5f 00       	.word	0x005f	; ????
     22a:	93 1d       	adc	r25, r3
     22c:	08 00       	.word	0x0008	; ????
     22e:	28 00       	.word	0x0028	; ????
     230:	f2 1d       	adc	r31, r2
     232:	09 00       	.word	0x0009	; ????
     234:	2d 00       	.word	0x002d	; ????
     236:	1a 1e       	adc	r1, r26
     238:	11 00       	.word	0x0011	; ????
     23a:	55 00       	.word	0x0055	; ????
     23c:	47 1e       	adc	r4, r23
     23e:	08 00       	.word	0x0008	; ????
     240:	28 00       	.word	0x0028	; ????
     242:	9c 1e       	adc	r9, r28
     244:	1e 00       	.word	0x001e	; ????
     246:	96 00       	.word	0x0096	; ????
     248:	c4 1e       	adc	r12, r20
     24a:	13 00       	.word	0x0013	; ????
     24c:	5f 00       	.word	0x005f	; ????
     24e:	5a 1f       	adc	r21, r26
     250:	14 00       	.word	0x0014	; ????
     252:	64 00       	.word	0x0064	; ????
     254:	b9 1f       	adc	r27, r25
     256:	13 00       	.word	0x0013	; ????
     258:	5f 00       	.word	0x005f	; ????
     25a:	1d 20       	and	r1, r13
     25c:	13 00       	.word	0x0013	; ????
     25e:	5f 00       	.word	0x005f	; ????
     260:	7c 20       	and	r7, r12
     262:	0d 00       	.word	0x000d	; ????
     264:	41 00       	.word	0x0041	; ????
     266:	db 20       	and	r13, r11
     268:	0e 00       	.word	0x000e	; ????
     26a:	46 00       	.word	0x0046	; ????
     26c:	1c 21       	and	r17, r12
     26e:	0c 00       	.word	0x000c	; ????
     270:	3c 00       	.word	0x003c	; ????
     272:	62 21       	and	r22, r2
     274:	13 00       	.word	0x0013	; ????
     276:	5f 00       	.word	0x005f	; ????
     278:	9e 21       	and	r25, r14
     27a:	11 00       	.word	0x0011	; ????
     27c:	55 00       	.word	0x0055	; ????
     27e:	fd 21       	and	r31, r13
     280:	1a 00       	.word	0x001a	; ????
     282:	82 00       	.word	0x0082	; ????
     284:	52 22       	and	r5, r18
     286:	10 00       	.word	0x0010	; ????
     288:	50 00       	.word	0x0050	; ????
     28a:	d4 22       	and	r13, r20
     28c:	11 00       	.word	0x0011	; ????
     28e:	55 00       	.word	0x0055	; ????
     290:	24 23       	and	r18, r20
     292:	0f 00       	.word	0x000f	; ????
     294:	4b 00       	.word	0x004b	; ????
     296:	79 23       	and	r23, r25
     298:	0c 00       	.word	0x000c	; ????
     29a:	3c 00       	.word	0x003c	; ????
     29c:	c4 23       	and	r28, r20
     29e:	11 00       	.word	0x0011	; ????
     2a0:	55 00       	.word	0x0055	; ????
     2a2:	00 24       	eor	r0, r0
     2a4:	0c 00       	.word	0x000c	; ????
     2a6:	3c 00       	.word	0x003c	; ????
     2a8:	55 24       	eor	r5, r5
     2aa:	12 00       	.word	0x0012	; ????
     2ac:	5a 00       	.word	0x005a	; ????
     2ae:	91 24       	eor	r9, r1
     2b0:	13 00       	.word	0x0013	; ????
     2b2:	5f 00       	.word	0x005f	; ????
     2b4:	eb 24       	eor	r14, r11
     2b6:	08 00       	.word	0x0008	; ????
     2b8:	28 00       	.word	0x0028	; ????
     2ba:	4a 25       	eor	r20, r10
     2bc:	0c 00       	.word	0x000c	; ????
     2be:	3c 00       	.word	0x003c	; ????
     2c0:	72 25       	eor	r23, r2
     2c2:	12 00       	.word	0x0012	; ????
     2c4:	5a 00       	.word	0x005a	; ????
     2c6:	ae 25       	eor	r26, r14
     2c8:	13 00       	.word	0x0013	; ????
     2ca:	5f 00       	.word	0x005f	; ????
     2cc:	08 26       	eor	r0, r24
     2ce:	12 00       	.word	0x0012	; ????
     2d0:	5a 00       	.word	0x005a	; ????
     2d2:	67 26       	eor	r6, r23
     2d4:	13 00       	.word	0x0013	; ????
     2d6:	5f 00       	.word	0x005f	; ????
     2d8:	c1 26       	eor	r12, r17
     2da:	12 00       	.word	0x0012	; ????
     2dc:	5a 00       	.word	0x005a	; ????
     2de:	20 27       	eor	r18, r16
     2e0:	12 00       	.word	0x0012	; ????
     2e2:	5a 00       	.word	0x005a	; ????
     2e4:	7a 27       	eor	r23, r26
     2e6:	0f 00       	.word	0x000f	; ????
     2e8:	4b 00       	.word	0x004b	; ????
     2ea:	d4 27       	eor	r29, r20
     2ec:	1f 00       	.word	0x001f	; ????
     2ee:	9b 00       	.word	0x009b	; ????
     2f0:	1f 28       	or	r1, r15
     2f2:	0f 00       	.word	0x000f	; ????
     2f4:	4b 00       	.word	0x004b	; ????
     2f6:	ba 28       	or	r11, r10
     2f8:	13 00       	.word	0x0013	; ????
     2fa:	5f 00       	.word	0x005f	; ????
     2fc:	05 29       	or	r16, r5
     2fe:	12 00       	.word	0x0012	; ????
     300:	5a 00       	.word	0x005a	; ????
     302:	64 29       	or	r22, r4
     304:	0b 00       	.word	0x000b	; ????
     306:	37 00       	.word	0x0037	; ????
     308:	be 29       	or	r27, r14
     30a:	13 00       	.word	0x0013	; ????
     30c:	5f 00       	.word	0x005f	; ????
     30e:	f5 29       	or	r31, r5
     310:	0f 00       	.word	0x000f	; ????
     312:	4b 00       	.word	0x004b	; ????
     314:	54 2a       	or	r5, r20
     316:	0d 00       	.word	0x000d	; ????
     318:	41 00       	.word	0x0041	; ????
     31a:	9f 2a       	or	r9, r31
     31c:	12 00       	.word	0x0012	; ????
     31e:	5a 00       	.word	0x005a	; ????
     320:	e0 2a       	or	r14, r16
     322:	0c 00       	.word	0x000c	; ????
     324:	3c 00       	.word	0x003c	; ????
     326:	3a 2b       	or	r19, r26
     328:	0c 00       	.word	0x000c	; ????
     32a:	3c 00       	.word	0x003c	; ????
     32c:	76 2b       	or	r23, r22
     32e:	0b 00       	.word	0x000b	; ????
     330:	37 00       	.word	0x0037	; ????
     332:	b2 2b       	or	r27, r18
     334:	14 00       	.word	0x0014	; ????
     336:	64 00       	.word	0x0064	; ????
     338:	e9 2b       	or	r30, r25
     33a:	16 00       	.word	0x0016	; ????
     33c:	6e 00       	.word	0x006e	; ????
     33e:	4d 2c       	mov	r4, r13
     340:	09 00       	.word	0x0009	; ????
     342:	2d 00       	.word	0x002d	; ????
     344:	bb 2c       	mov	r11, r11
     346:	0b 00       	.word	0x000b	; ????
     348:	37 00       	.word	0x0037	; ????
     34a:	e8 2c       	mov	r14, r8
     34c:	09 00       	.word	0x0009	; ????
     34e:	2d 00       	.word	0x002d	; ????
     350:	1f 2d       	mov	r17, r15
     352:	10 00       	.word	0x0010	; ????
     354:	50 00       	.word	0x0050	; ????
     356:	4c 2d       	mov	r20, r12
     358:	13 00       	.word	0x0013	; ????
     35a:	5f 00       	.word	0x005f	; ????
     35c:	9c 2d       	mov	r25, r12
     35e:	18 00       	.word	0x0018	; ????
     360:	78 00       	.word	0x0078	; ????
     362:	fb 2d       	mov	r31, r11
     364:	19 00       	.word	0x0019	; ????
     366:	7d 00       	.word	0x007d	; ????
     368:	73 2e       	mov	r7, r19
     36a:	19 00       	.word	0x0019	; ????
     36c:	7d 00       	.word	0x007d	; ????
     36e:	f0 2e       	mov	r15, r16
     370:	11 00       	.word	0x0011	; ????
     372:	55 00       	.word	0x0055	; ????
     374:	6d 2f       	mov	r22, r29
     376:	15 00       	.word	0x0015	; ????
     378:	69 00       	.word	0x0069	; ????
     37a:	c2 2f       	mov	r28, r18
     37c:	15 00       	.word	0x0015	; ????
     37e:	69 00       	.word	0x0069	; ????
     380:	2b 30       	cpi	r18, 0x0B	; 11
     382:	15 00       	.word	0x0015	; ????
     384:	69 00       	.word	0x0069	; ????
     386:	94 30       	cpi	r25, 0x04	; 4
     388:	15 00       	.word	0x0015	; ????
     38a:	69 00       	.word	0x0069	; ????
     38c:	fd 30       	cpi	r31, 0x0D	; 13
     38e:	15 00       	.word	0x0015	; ????
     390:	69 00       	.word	0x0069	; ????
     392:	66 31       	cpi	r22, 0x16	; 22
     394:	15 00       	.word	0x0015	; ????
     396:	69 00       	.word	0x0069	; ????
     398:	cf 31       	cpi	r28, 0x1F	; 31
     39a:	1c 00       	.word	0x001c	; ????
     39c:	8c 00       	.word	0x008c	; ????
     39e:	38 32       	cpi	r19, 0x28	; 40
     3a0:	14 00       	.word	0x0014	; ????
     3a2:	64 00       	.word	0x0064	; ????
     3a4:	c4 32       	cpi	r28, 0x24	; 36
     3a6:	12 00       	.word	0x0012	; ????
     3a8:	5a 00       	.word	0x005a	; ????
     3aa:	28 33       	cpi	r18, 0x38	; 56
     3ac:	12 00       	.word	0x0012	; ????
     3ae:	5a 00       	.word	0x005a	; ????
     3b0:	82 33       	cpi	r24, 0x32	; 50
     3b2:	12 00       	.word	0x0012	; ????
     3b4:	5a 00       	.word	0x005a	; ????
     3b6:	dc 33       	cpi	r29, 0x3C	; 60
     3b8:	12 00       	.word	0x0012	; ????
     3ba:	5a 00       	.word	0x005a	; ????
     3bc:	36 34       	cpi	r19, 0x46	; 70
     3be:	09 00       	.word	0x0009	; ????
     3c0:	2d 00       	.word	0x002d	; ????
     3c2:	90 34       	cpi	r25, 0x40	; 64
     3c4:	09 00       	.word	0x0009	; ????
     3c6:	2d 00       	.word	0x002d	; ????
     3c8:	bd 34       	cpi	r27, 0x4D	; 77
     3ca:	0d 00       	.word	0x000d	; ????
     3cc:	41 00       	.word	0x0041	; ????
     3ce:	ea 34       	cpi	r30, 0x4A	; 74
     3d0:	0a 00       	.word	0x000a	; ????
     3d2:	32 00       	.word	0x0032	; ????
     3d4:	2b 35       	cpi	r18, 0x5B	; 91
     3d6:	17 00       	.word	0x0017	; ????
     3d8:	73 00       	.word	0x0073	; ????
     3da:	5d 35       	cpi	r21, 0x5D	; 93
     3dc:	18 00       	.word	0x0018	; ????
     3de:	78 00       	.word	0x0078	; ????
     3e0:	d0 35       	cpi	r29, 0x50	; 80
     3e2:	19 00       	.word	0x0019	; ????
     3e4:	7d 00       	.word	0x007d	; ????
     3e6:	48 36       	cpi	r20, 0x68	; 104
     3e8:	19 00       	.word	0x0019	; ????
     3ea:	7d 00       	.word	0x007d	; ????
     3ec:	c5 36       	cpi	r28, 0x65	; 101
     3ee:	19 00       	.word	0x0019	; ????
     3f0:	7d 00       	.word	0x007d	; ????
     3f2:	42 37       	cpi	r20, 0x72	; 114
     3f4:	19 00       	.word	0x0019	; ????
     3f6:	7d 00       	.word	0x007d	; ????
     3f8:	bf 37       	cpi	r27, 0x7F	; 127
     3fa:	19 00       	.word	0x0019	; ????
     3fc:	7d 00       	.word	0x007d	; ????
     3fe:	3c 38       	cpi	r19, 0x8C	; 140
     400:	12 00       	.word	0x0012	; ????
     402:	5a 00       	.word	0x005a	; ????
     404:	b9 38       	cpi	r27, 0x89	; 137
     406:	19 00       	.word	0x0019	; ????
     408:	7d 00       	.word	0x007d	; ????
     40a:	13 39       	cpi	r17, 0x93	; 147
     40c:	18 00       	.word	0x0018	; ????
     40e:	78 00       	.word	0x0078	; ????
     410:	90 39       	cpi	r25, 0x90	; 144
     412:	18 00       	.word	0x0018	; ????
     414:	78 00       	.word	0x0078	; ????
     416:	08 3a       	cpi	r16, 0xA8	; 168
     418:	18 00       	.word	0x0018	; ????
     41a:	78 00       	.word	0x0078	; ????
     41c:	80 3a       	cpi	r24, 0xA0	; 160
     41e:	18 00       	.word	0x0018	; ????
     420:	78 00       	.word	0x0078	; ????
     422:	f8 3a       	cpi	r31, 0xA8	; 168
     424:	12 00       	.word	0x0012	; ????
     426:	5a 00       	.word	0x005a	; ????
     428:	70 3b       	cpi	r23, 0xB0	; 176
     42a:	13 00       	.word	0x0013	; ????
     42c:	5f 00       	.word	0x005f	; ????
     42e:	ca 3b       	cpi	r28, 0xBA	; 186
     430:	14 00       	.word	0x0014	; ????
     432:	64 00       	.word	0x0064	; ????
     434:	29 3c       	cpi	r18, 0xC9	; 201
     436:	12 00       	.word	0x0012	; ????
     438:	5a 00       	.word	0x005a	; ????
     43a:	8d 3c       	cpi	r24, 0xCD	; 205
     43c:	12 00       	.word	0x0012	; ????
     43e:	5a 00       	.word	0x005a	; ????
     440:	e7 3c       	cpi	r30, 0xC7	; 199
     442:	12 00       	.word	0x0012	; ????
     444:	5a 00       	.word	0x005a	; ????
     446:	41 3d       	cpi	r20, 0xD1	; 209
     448:	12 00       	.word	0x0012	; ????
     44a:	5a 00       	.word	0x005a	; ????
     44c:	9b 3d       	cpi	r25, 0xDB	; 219
     44e:	12 00       	.word	0x0012	; ????
     450:	5a 00       	.word	0x005a	; ????
     452:	f5 3d       	cpi	r31, 0xD5	; 213
     454:	12 00       	.word	0x0012	; ????
     456:	5a 00       	.word	0x005a	; ????
     458:	4f 3e       	cpi	r20, 0xEF	; 239
     45a:	1d 00       	.word	0x001d	; ????
     45c:	91 00       	.word	0x0091	; ????
     45e:	a9 3e       	cpi	r26, 0xE9	; 233
     460:	10 00       	.word	0x0010	; ????
     462:	50 00       	.word	0x0050	; ????
     464:	3a 3f       	cpi	r19, 0xFA	; 250
     466:	12 00       	.word	0x0012	; ????
     468:	5a 00       	.word	0x005a	; ????
     46a:	8a 3f       	cpi	r24, 0xFA	; 250
     46c:	12 00       	.word	0x0012	; ????
     46e:	5a 00       	.word	0x005a	; ????
     470:	e4 3f       	cpi	r30, 0xF4	; 244
     472:	12 00       	.word	0x0012	; ????
     474:	5a 00       	.word	0x005a	; ????
     476:	3e 40       	sbci	r19, 0x0E	; 14
     478:	12 00       	.word	0x0012	; ????
     47a:	5a 00       	.word	0x005a	; ????
     47c:	98 40       	sbci	r25, 0x08	; 8
     47e:	08 00       	.word	0x0008	; ????
     480:	28 00       	.word	0x0028	; ????
     482:	f2 40       	sbci	r31, 0x02	; 2
     484:	08 00       	.word	0x0008	; ????
     486:	28 00       	.word	0x0028	; ????
     488:	1a 41       	sbci	r17, 0x1A	; 26
     48a:	0b 00       	.word	0x000b	; ????
     48c:	37 00       	.word	0x0037	; ????
     48e:	42 41       	sbci	r20, 0x12	; 18
     490:	08 00       	.word	0x0008	; ????
     492:	28 00       	.word	0x0028	; ????
     494:	79 41       	sbci	r23, 0x19	; 25
     496:	13 00       	.word	0x0013	; ????
     498:	5f 00       	.word	0x005f	; ????
     49a:	a1 41       	sbci	r26, 0x11	; 17
     49c:	13 00       	.word	0x0013	; ????
     49e:	5f 00       	.word	0x005f	; ????
     4a0:	00 42       	sbci	r16, 0x20	; 32
     4a2:	14 00       	.word	0x0014	; ????
     4a4:	64 00       	.word	0x0064	; ????
     4a6:	5f 42       	sbci	r21, 0x2F	; 47
     4a8:	14 00       	.word	0x0014	; ????
     4aa:	64 00       	.word	0x0064	; ????
     4ac:	c3 42       	sbci	r28, 0x23	; 35
     4ae:	14 00       	.word	0x0014	; ????
     4b0:	64 00       	.word	0x0064	; ????
     4b2:	27 43       	sbci	r18, 0x37	; 55
     4b4:	14 00       	.word	0x0014	; ????
     4b6:	64 00       	.word	0x0064	; ????
     4b8:	8b 43       	sbci	r24, 0x3B	; 59
     4ba:	14 00       	.word	0x0014	; ????
     4bc:	64 00       	.word	0x0064	; ????
     4be:	ef 43       	sbci	r30, 0x3F	; 63
     4c0:	12 00       	.word	0x0012	; ????
     4c2:	5a 00       	.word	0x005a	; ????
     4c4:	53 44       	sbci	r21, 0x43	; 67
     4c6:	14 00       	.word	0x0014	; ????
     4c8:	64 00       	.word	0x0064	; ????
     4ca:	ad 44       	sbci	r26, 0x4D	; 77
     4cc:	13 00       	.word	0x0013	; ????
     4ce:	5f 00       	.word	0x005f	; ????
     4d0:	11 45       	sbci	r17, 0x51	; 81
     4d2:	13 00       	.word	0x0013	; ????
     4d4:	5f 00       	.word	0x005f	; ????
     4d6:	70 45       	sbci	r23, 0x50	; 80
     4d8:	13 00       	.word	0x0013	; ????
     4da:	5f 00       	.word	0x005f	; ????
     4dc:	cf 45       	sbci	r28, 0x5F	; 95
     4de:	13 00       	.word	0x0013	; ????
     4e0:	5f 00       	.word	0x005f	; ????
     4e2:	2e 46       	sbci	r18, 0x6E	; 110
     4e4:	11 00       	.word	0x0011	; ????
     4e6:	55 00       	.word	0x0055	; ????
     4e8:	8d 46       	sbci	r24, 0x6D	; 109
     4ea:	13 00       	.word	0x0013	; ????
     4ec:	5f 00       	.word	0x005f	; ????
     4ee:	e2 46       	sbci	r30, 0x62	; 98
     4f0:	11 00       	.word	0x0011	; ????
     4f2:	55 00       	.word	0x0055	; ????
     4f4:	41 47       	sbci	r20, 0x71	; 113
	...
     522:	00 f0       	brcs	.+0      	; 0x524 <__LOCK_REGION_LENGTH__+0x124>
     524:	f0 f0       	brcs	.+60     	; 0x562 <__LOCK_REGION_LENGTH__+0x162>
	...
     52e:	00 ff       	sbrs	r16, 0
     530:	ff ff       	.word	0xffff	; ????
	...
     53a:	00 7f       	andi	r16, 0xF0	; 240
     53c:	7f 7f       	andi	r23, 0xFF	; 255
	...
     546:	00 1e       	adc	r0, r16
     548:	1e 1e       	adc	r1, r30
     54a:	0c 00       	.word	0x000c	; ????
	...
     55c:	00 f0       	brcs	.+0      	; 0x55e <__LOCK_REGION_LENGTH__+0x15e>
     55e:	f0 70       	andi	r31, 0x00	; 0
     560:	00 00       	nop
     562:	00 f0       	brcs	.+0      	; 0x564 <__LOCK_REGION_LENGTH__+0x164>
     564:	f0 f0       	brcs	.+60     	; 0x5a2 <__LOCK_REGION_LENGTH__+0x1a2>
     566:	00 00       	nop
     568:	00 00       	nop
     56a:	00 00       	nop
     56c:	3f 3f       	cpi	r19, 0xFF	; 255
     56e:	00 00       	nop
     570:	00 00       	nop
     572:	3f 3f       	cpi	r19, 0xFF	; 255
     574:	3f 00       	.word	0x003f	; ????
	...
     5aa:	c0 c0       	rjmp	.+384    	; 0x72c <__LOCK_REGION_LENGTH__+0x32c>
     5ac:	c0 00       	.word	0x00c0	; ????
     5ae:	00 00       	nop
     5b0:	00 00       	nop
     5b2:	c0 c0       	rjmp	.+384    	; 0x734 <__LOCK_REGION_LENGTH__+0x334>
     5b4:	c0 00       	.word	0x00c0	; ????
     5b6:	00 00       	nop
     5b8:	00 38       	cpi	r16, 0x80	; 128
     5ba:	38 f8       	.word	0xf838	; ????
     5bc:	ff ff       	.word	0xffff	; ????
     5be:	3b 38       	cpi	r19, 0x8B	; 139
     5c0:	38 38       	cpi	r19, 0x88	; 136
     5c2:	38 fc       	.word	0xfc38	; ????
     5c4:	ff ff       	.word	0xffff	; ????
     5c6:	38 38       	cpi	r19, 0x88	; 136
     5c8:	38 00       	.word	0x0038	; ????
     5ca:	38 38       	cpi	r19, 0x88	; 136
     5cc:	f8 ff       	.word	0xfff8	; ????
     5ce:	ff 3b       	cpi	r31, 0xBF	; 191
     5d0:	38 38       	cpi	r19, 0x88	; 136
     5d2:	38 38       	cpi	r19, 0x88	; 136
     5d4:	fc ff       	.word	0xfffc	; ????
     5d6:	ff 38       	cpi	r31, 0x8F	; 143
     5d8:	38 38       	cpi	r19, 0x88	; 136
     5da:	00 00       	nop
     5dc:	00 00       	nop
     5de:	1f 1f       	adc	r17, r31
     5e0:	07 00       	.word	0x0007	; ????
     5e2:	00 00       	nop
     5e4:	00 18       	sub	r0, r0
     5e6:	1f 1f       	adc	r17, r31
	...
     600:	00 00       	nop
     602:	00 80       	ld	r0, Z
     604:	80 c0       	rjmp	.+256    	; 0x706 <__LOCK_REGION_LENGTH__+0x306>
     606:	c0 c0       	rjmp	.+384    	; 0x788 <__LOCK_REGION_LENGTH__+0x388>
     608:	fc fc       	.word	0xfcfc	; ????
     60a:	c4 c0       	rjmp	.+392    	; 0x794 <__LOCK_REGION_LENGTH__+0x394>
     60c:	80 80       	ld	r8, Z
     60e:	00 00       	nop
     610:	00 00       	nop
     612:	00 00       	nop
     614:	3c ff       	.word	0xff3c	; ????
     616:	ff e3       	ldi	r31, 0x3F	; 63
     618:	c3 81       	ldd	r28, Z+3	; 0x03
     61a:	81 01       	movw	r16, r2
     61c:	01 01       	movw	r0, r2
     61e:	01 03       	mulsu	r16, r17
     620:	03 00       	.word	0x0003	; ????
     622:	00 00       	nop
     624:	00 00       	nop
     626:	00 00       	nop
     628:	00 01       	movw	r0, r0
     62a:	01 03       	mulsu	r16, r17
     62c:	03 03       	mulsu	r16, r19
     62e:	07 07       	cpc	r16, r23
     630:	0f 0e       	add	r0, r31
     632:	fe fc       	.word	0xfcfe	; ????
     634:	f8 e0       	ldi	r31, 0x08	; 8
     636:	00 00       	nop
     638:	00 00       	nop
     63a:	0f 0e       	add	r0, r31
     63c:	1e 1c       	adc	r1, r14
     63e:	fc fc       	.word	0xfcfc	; ????
     640:	fc 1c       	adc	r15, r12
     642:	1c 1e       	adc	r1, r28
     644:	0e 0f       	add	r16, r30
     646:	07 03       	mulsu	r16, r23
	...
     650:	00 01       	movw	r0, r0
     652:	01 00       	.word	0x0001	; ????
	...
     660:	c0 c0       	rjmp	.+384    	; 0x7e2 <__LOCK_REGION_LENGTH__+0x3e2>
     662:	e0 60       	ori	r30, 0x00	; 0
     664:	60 e0       	ldi	r22, 0x00	; 0
     666:	c0 c0       	rjmp	.+384    	; 0x7e8 <__LOCK_REGION_LENGTH__+0x3e8>
	...
     670:	00 80       	ld	r0, Z
     672:	e0 e0       	ldi	r30, 0x00	; 0
     674:	20 00       	.word	0x0020	; ????
     676:	00 00       	nop
     678:	00 3f       	cpi	r16, 0xF0	; 240
     67a:	ff ff       	.word	0xffff	; ????
     67c:	80 80       	ld	r8, Z
     67e:	80 80       	ld	r8, Z
     680:	ff ff       	.word	0xffff	; ????
     682:	3f 00       	.word	0x003f	; ????
     684:	00 80       	ld	r0, Z
     686:	c0 e0       	ldi	r28, 0x00	; 0
     688:	78 3c       	cpi	r23, 0xC8	; 200
     68a:	0f 07       	cpc	r16, r31
     68c:	01 00       	.word	0x0001	; ????
     68e:	00 00       	nop
     690:	00 00       	nop
     692:	00 00       	nop
     694:	00 01       	movw	r0, r0
     696:	01 01       	movw	r0, r2
     698:	01 01       	movw	r0, r2
     69a:	80 e0       	ldi	r24, 0x00	; 0
     69c:	f0 3c       	cpi	r31, 0xC0	; 192
     69e:	1e 07       	cpc	r17, r30
     6a0:	03 f1       	brvs	.+64     	; 0x6e2 <__LOCK_REGION_LENGTH__+0x2e2>
     6a2:	fc fc       	.word	0xfcfc	; ????
     6a4:	0e 06       	cpc	r0, r30
     6a6:	06 0e       	add	r0, r22
     6a8:	fc fc       	.word	0xfcfc	; ????
     6aa:	f0 00       	.word	0x00f0	; ????
     6ac:	00 00       	nop
     6ae:	00 00       	nop
     6b0:	20 38       	cpi	r18, 0x80	; 128
     6b2:	3c 0f       	add	r19, r28
     6b4:	07 01       	movw	r0, r14
     6b6:	00 00       	nop
     6b8:	00 00       	nop
     6ba:	00 03       	mulsu	r16, r16
     6bc:	0f 1f       	adc	r16, r31
     6be:	18 18       	sub	r1, r8
     6c0:	18 18       	sub	r1, r8
     6c2:	0f 0f       	add	r16, r31
     6c4:	03 00       	.word	0x0003	; ????
	...
     6e2:	00 00       	nop
     6e4:	00 c0       	rjmp	.+0      	; 0x6e6 <__LOCK_REGION_LENGTH__+0x2e6>
     6e6:	e0 e0       	ldi	r30, 0x00	; 0
     6e8:	f0 70       	andi	r31, 0x00	; 0
     6ea:	70 70       	andi	r23, 0x00	; 0
     6ec:	70 f0       	brcs	.+28     	; 0x70a <__LOCK_REGION_LENGTH__+0x30a>
     6ee:	e0 e0       	ldi	r30, 0x00	; 0
     6f0:	c0 00       	.word	0x00c0	; ????
	...
     6fa:	00 00       	nop
     6fc:	00 0f       	add	r16, r16
     6fe:	3f 7f       	andi	r19, 0xFF	; 255
     700:	f9 e0       	ldi	r31, 0x09	; 9
     702:	c0 c0       	rjmp	.+384    	; 0x884 <__LOCK_REGION_LENGTH__+0x484>
     704:	e0 70       	andi	r30, 0x00	; 0
     706:	78 3f       	cpi	r23, 0xF8	; 248
     708:	1f 0f       	add	r17, r31
	...
     712:	00 00       	nop
     714:	f0 fc       	sbrc	r15, 0
     716:	fe 0f       	add	r31, r30
     718:	07 03       	mulsu	r16, r23
     71a:	03 07       	cpc	r16, r19
     71c:	0f 1e       	adc	r0, r31
     71e:	3c 78       	andi	r19, 0x8C	; 140
     720:	f0 e0       	ldi	r31, 0x00	; 0
     722:	c0 c0       	rjmp	.+384    	; 0x8a4 <__LOCK_REGION_LENGTH__+0x4a4>
     724:	f8 ff       	.word	0xfff8	; ????
     726:	3f 07       	cpc	r19, r31
     728:	00 00       	nop
     72a:	00 00       	nop
     72c:	00 01       	movw	r0, r0
     72e:	07 0f       	add	r16, r23
     730:	0f 1e       	adc	r0, r31
     732:	1c 1c       	adc	r1, r12
     734:	1c 1c       	adc	r1, r12
     736:	1c 1c       	adc	r1, r12
     738:	0e 0e       	add	r0, r30
     73a:	07 07       	cpc	r16, r23
     73c:	03 07       	cpc	r16, r19
     73e:	0f 0e       	add	r0, r31
     740:	1e 1c       	adc	r1, r14
     742:	1c 00       	.word	0x001c	; ????
	...
     760:	f0 f0       	brcs	.+60     	; 0x79e <__LOCK_REGION_LENGTH__+0x39e>
     762:	f0 00       	.word	0x00f0	; ????
     764:	00 00       	nop
     766:	00 00       	nop
     768:	3f 3f       	cpi	r19, 0xFF	; 255
	...
     786:	00 00       	nop
     788:	00 80       	ld	r0, Z
     78a:	f0 f8       	bld	r15, 0
     78c:	38 08       	sbc	r3, r8
     78e:	00 00       	nop
     790:	00 00       	nop
     792:	c0 fc       	sbrc	r12, 0
     794:	ff 3f       	cpi	r31, 0xFF	; 255
     796:	01 00       	.word	0x0001	; ????
     798:	00 00       	nop
     79a:	00 00       	nop
     79c:	00 ff       	sbrs	r16, 0
     79e:	ff ff       	.word	0xffff	; ????
	...
     7a8:	01 1f       	adc	r16, r17
     7aa:	7f ff       	.word	0xff7f	; ????
     7ac:	e0 00       	.word	0x00e0	; ????
	...
     7b6:	03 03       	mulsu	r16, r19
     7b8:	03 00       	.word	0x0003	; ????
     7ba:	00 00       	nop
     7bc:	00 00       	nop
     7be:	08 38       	cpi	r16, 0x88	; 136
     7c0:	f8 f0       	brcs	.+62     	; 0x800 <__LOCK_REGION_LENGTH__+0x400>
     7c2:	80 00       	.word	0x0080	; ????
     7c4:	00 00       	nop
     7c6:	00 00       	nop
     7c8:	00 00       	nop
     7ca:	00 01       	movw	r0, r0
     7cc:	3f ff       	.word	0xff3f	; ????
     7ce:	fe e0       	ldi	r31, 0x0E	; 14
	...
     7d8:	ff ff       	.word	0xffff	; ????
     7da:	ff 00       	.word	0x00ff	; ????
     7dc:	00 00       	nop
     7de:	00 00       	nop
     7e0:	00 e0       	ldi	r16, 0x00	; 0
     7e2:	ff ff       	.word	0xffff	; ????
     7e4:	1f 01       	movw	r2, r30
     7e6:	00 00       	nop
     7e8:	00 00       	nop
     7ea:	00 03       	mulsu	r16, r16
     7ec:	03 03       	mulsu	r16, r19
	...
     7f6:	c0 c0       	rjmp	.+384    	; 0x978 <__stack+0x79>
     7f8:	c0 80       	ld	r12, Z
     7fa:	00 f8       	bld	r0, 0
     7fc:	f8 00       	.word	0x00f8	; ????
     7fe:	80 80       	ld	r8, Z
     800:	c0 c0       	rjmp	.+384    	; 0x982 <__stack+0x83>
     802:	00 00       	nop
     804:	00 00       	nop
     806:	00 00       	nop
     808:	30 39       	cpi	r19, 0x90	; 144
     80a:	39 1f       	adc	r19, r25
     80c:	0f ff       	.word	0xff0f	; ????
     80e:	ff 0f       	add	r31, r31
     810:	1f 19       	sub	r17, r15
     812:	39 30       	cpi	r19, 0x09	; 9
	...
     81c:	00 00       	nop
     81e:	00 01       	movw	r0, r0
     820:	01 01       	movw	r0, r2
	...
     866:	00 fc       	sbrc	r0, 0
     868:	fc fc       	.word	0xfcfc	; ????
	...
     872:	0e 0e       	add	r0, r30
     874:	0e 0e       	add	r0, r30
     876:	0e 0e       	add	r0, r30
     878:	0e ff       	.word	0xff0e	; ????
     87a:	ff ff       	.word	0xffff	; ????
     87c:	0e 0e       	add	r0, r30
     87e:	0e 0e       	add	r0, r30
     880:	0e 0e       	add	r0, r30
	...
     88a:	00 07       	cpc	r16, r16
     88c:	07 07       	cpc	r16, r23
	...
     8c2:	00 00       	nop
     8c4:	c0 fe       	sbrs	r12, 0
     8c6:	fe 3e       	cpi	r31, 0xEE	; 238
     8c8:	0e 00       	.word	0x000e	; ????
     8ca:	00 00       	nop
     8cc:	03 03       	mulsu	r16, r19
     8ce:	01 00       	.word	0x0001	; ????
	...
     8e8:	00 00       	nop
     8ea:	00 1c       	adc	r0, r0
     8ec:	1c 1c       	adc	r1, r12
     8ee:	1c 1c       	adc	r1, r12
     8f0:	1c 1c       	adc	r1, r12
     8f2:	1c 1c       	adc	r1, r12
	...
     928:	00 1e       	adc	r0, r16
     92a:	1e 1e       	adc	r1, r30
     92c:	1e 00       	.word	0x001e	; ????
	...
     93e:	00 00       	nop
     940:	00 80       	ld	r0, Z
     942:	f0 fc       	sbrc	r15, 0
     944:	7c 0c       	add	r7, r12
     946:	00 00       	nop
     948:	00 00       	nop
     94a:	00 00       	nop
     94c:	80 e0       	ldi	r24, 0x00	; 0
     94e:	fc 7f       	andi	r31, 0xFC	; 252
     950:	1f 03       	fmul	r17, r23
     952:	00 00       	nop
     954:	00 00       	nop
     956:	00 00       	nop
     958:	e0 fc       	sbrc	r14, 0
     95a:	ff 1f       	adc	r31, r31
     95c:	03 00       	.word	0x0003	; ????
     95e:	00 00       	nop
     960:	00 00       	nop
     962:	00 e0       	ldi	r16, 0x00	; 0
     964:	fc ff       	.word	0xfffc	; ????
     966:	1f 03       	fmul	r17, r23
	...
     970:	03 03       	mulsu	r16, r19
     972:	03 00       	.word	0x0003	; ????
	...
     980:	00 00       	nop
     982:	00 80       	ld	r0, Z
     984:	c0 c0       	rjmp	.+384    	; 0xb06 <__stack+0x207>
     986:	c0 c0       	rjmp	.+384    	; 0xb08 <__stack+0x209>
     988:	c0 c0       	rjmp	.+384    	; 0xb0a <__stack+0x20b>
     98a:	c0 80       	ld	r12, Z
     98c:	80 00       	.word	0x0080	; ????
     98e:	00 00       	nop
     990:	00 00       	nop
     992:	e0 fc       	sbrc	r14, 0
     994:	ff 1f       	adc	r31, r31
     996:	07 03       	mulsu	r16, r23
     998:	01 01       	movw	r0, r2
     99a:	01 01       	movw	r0, r2
     99c:	01 03       	mulsu	r16, r17
     99e:	07 1f       	adc	r16, r23
     9a0:	ff fe       	.word	0xfeff	; ????
     9a2:	f0 00       	.word	0x00f0	; ????
     9a4:	00 7f       	andi	r16, 0xF0	; 240
     9a6:	ff ff       	.word	0xffff	; ????
     9a8:	c0 00       	.word	0x00c0	; ????
	...
     9b2:	c0 ff       	sbrs	r28, 0
     9b4:	ff 3f       	cpi	r31, 0xFF	; 255
     9b6:	00 00       	nop
     9b8:	00 03       	mulsu	r16, r16
     9ba:	07 0f       	add	r16, r23
     9bc:	0f 1e       	adc	r0, r31
     9be:	1c 1c       	adc	r1, r12
     9c0:	1c 1c       	adc	r1, r12
     9c2:	1c 1e       	adc	r1, r28
     9c4:	0f 07       	cpc	r16, r31
     9c6:	07 01       	movw	r0, r14
	...
     9e4:	80 80       	ld	r8, Z
     9e6:	c0 c0       	rjmp	.+384    	; 0xb68 <__stack+0x269>
     9e8:	c0 00       	.word	0x00c0	; ????
	...
     9f2:	00 0c       	add	r0, r0
     9f4:	0e 06       	cpc	r0, r30
     9f6:	07 03       	mulsu	r16, r23
     9f8:	01 ff       	sbrs	r16, 1
     9fa:	ff ff       	.word	0xffff	; ????
	...
     a0c:	ff ff       	.word	0xffff	; ????
     a0e:	ff 00       	.word	0x00ff	; ????
	...
     a18:	00 1c       	adc	r0, r0
     a1a:	1c 1c       	adc	r1, r12
     a1c:	1c 1c       	adc	r1, r12
     a1e:	1c 1f       	adc	r17, r28
     a20:	1f 1f       	adc	r17, r31
     a22:	1c 1c       	adc	r1, r12
     a24:	1c 1c       	adc	r1, r12
     a26:	1c 00       	.word	0x001c	; ????
	...
     a3c:	00 00       	nop
     a3e:	00 80       	ld	r0, Z
     a40:	80 80       	ld	r8, Z
     a42:	c0 c0       	rjmp	.+384    	; 0xbc4 <__stack+0x2c5>
     a44:	c0 c0       	rjmp	.+384    	; 0xbc6 <__stack+0x2c7>
     a46:	c0 c0       	rjmp	.+384    	; 0xbc8 <__stack+0x2c9>
     a48:	80 80       	ld	r8, Z
     a4a:	00 00       	nop
     a4c:	00 00       	nop
     a4e:	00 00       	nop
     a50:	00 07       	cpc	r16, r16
     a52:	07 03       	mulsu	r16, r23
     a54:	03 01       	movw	r0, r6
     a56:	01 01       	movw	r0, r2
     a58:	01 01       	movw	r0, r2
     a5a:	03 87       	std	Z+11, r16	; 0x0b
     a5c:	ff ff       	.word	0xffff	; ????
     a5e:	7e 00       	.word	0x007e	; ????
     a60:	00 00       	nop
     a62:	00 00       	nop
     a64:	00 00       	nop
     a66:	00 80       	ld	r0, Z
     a68:	c0 e0       	ldi	r28, 0x00	; 0
     a6a:	f0 78       	andi	r31, 0x80	; 128
     a6c:	3c 1e       	adc	r3, r28
     a6e:	0f 03       	fmul	r16, r23
     a70:	01 00       	.word	0x0001	; ????
     a72:	00 00       	nop
     a74:	00 00       	nop
     a76:	00 1c       	adc	r0, r0
     a78:	1e 1f       	adc	r17, r30
     a7a:	1f 1f       	adc	r17, r31
     a7c:	1d 1c       	adc	r1, r13
     a7e:	1c 1c       	adc	r1, r12
     a80:	1c 1c       	adc	r1, r12
     a82:	1c 1c       	adc	r1, r12
     a84:	1c 1c       	adc	r1, r12
	...
     a9e:	00 80       	ld	r0, Z
     aa0:	80 c0       	rjmp	.+256    	; 0xba2 <__stack+0x2a3>
     aa2:	c0 c0       	rjmp	.+384    	; 0xc24 <__stack+0x325>
     aa4:	c0 c0       	rjmp	.+384    	; 0xc26 <__stack+0x327>
     aa6:	c0 c0       	rjmp	.+384    	; 0xc28 <__stack+0x329>
     aa8:	80 00       	.word	0x0080	; ????
     aaa:	00 00       	nop
     aac:	00 00       	nop
     aae:	00 00       	nop
     ab0:	00 07       	cpc	r16, r16
     ab2:	83 83       	std	Z+3, r24	; 0x03
     ab4:	83 81       	ldd	r24, Z+3	; 0x03
     ab6:	81 81       	ldd	r24, Z+1	; 0x01
     ab8:	81 c1       	rjmp	.+770    	; 0xdbc <__stack+0x4bd>
     aba:	e3 7f       	andi	r30, 0xF3	; 243
     abc:	7f 1e       	adc	r7, r31
     abe:	00 00       	nop
     ac0:	00 00       	nop
     ac2:	00 00       	nop
     ac4:	00 03       	mulsu	r16, r16
     ac6:	03 03       	mulsu	r16, r19
     ac8:	03 03       	mulsu	r16, r19
     aca:	03 03       	mulsu	r16, r19
     acc:	07 07       	cpc	r16, r23
     ace:	0e fe       	.word	0xfe0e	; ????
     ad0:	fc f0       	brlt	.+62     	; 0xb10 <__stack+0x211>
     ad2:	00 00       	nop
     ad4:	00 00       	nop
     ad6:	07 0f       	add	r16, r23
     ad8:	0e 1e       	adc	r0, r30
     ada:	1c 1c       	adc	r1, r12
     adc:	1c 1c       	adc	r1, r12
     ade:	1c 1c       	adc	r1, r12
     ae0:	0e 0f       	add	r16, r30
     ae2:	07 03       	mulsu	r16, r23
     ae4:	01 00       	.word	0x0001	; ????
	...
     b02:	00 00       	nop
     b04:	c0 c0       	rjmp	.+384    	; 0xc86 <__stack+0x387>
     b06:	c0 c0       	rjmp	.+384    	; 0xc88 <__stack+0x389>
     b08:	c0 00       	.word	0x00c0	; ????
	...
     b12:	c0 e0       	ldi	r28, 0x00	; 0
     b14:	78 3e       	cpi	r23, 0xE8	; 232
     b16:	0f 07       	cpc	r16, r31
     b18:	01 ff       	sbrs	r16, 1
     b1a:	ff ff       	.word	0xffff	; ????
     b1c:	00 00       	nop
     b1e:	00 00       	nop
     b20:	00 f0       	brcs	.+0      	; 0xb22 <__stack+0x223>
     b22:	f8 fe       	.word	0xfef8	; ????
     b24:	ef e3       	ldi	r30, 0x3F	; 63
     b26:	e1 e0       	ldi	r30, 0x01	; 1
     b28:	e0 e0       	ldi	r30, 0x00	; 0
     b2a:	e0 e0       	ldi	r30, 0x00	; 0
     b2c:	ff ff       	.word	0xffff	; ????
     b2e:	ff e0       	ldi	r31, 0x0F	; 15
     b30:	e0 e0       	ldi	r30, 0x00	; 0
	...
     b3e:	00 1f       	adc	r16, r16
     b40:	1f 1f       	adc	r17, r31
	...
     b5a:	00 00       	nop
     b5c:	c0 c0       	rjmp	.+384    	; 0xcde <__stack+0x3df>
     b5e:	c0 c0       	rjmp	.+384    	; 0xce0 <__stack+0x3e1>
     b60:	c0 c0       	rjmp	.+384    	; 0xce2 <__stack+0x3e3>
     b62:	c0 c0       	rjmp	.+384    	; 0xce4 <__stack+0x3e5>
     b64:	c0 c0       	rjmp	.+384    	; 0xce6 <__stack+0x3e7>
     b66:	c0 c0       	rjmp	.+384    	; 0xce8 <__stack+0x3e9>
     b68:	c0 00       	.word	0x00c0	; ????
     b6a:	00 00       	nop
     b6c:	00 00       	nop
     b6e:	00 ff       	sbrs	r16, 0
     b70:	ff ff       	.word	0xffff	; ????
     b72:	c1 c1       	rjmp	.+898    	; 0xef6 <__stack+0x5f7>
     b74:	c1 c1       	rjmp	.+898    	; 0xef8 <__stack+0x5f9>
     b76:	c1 c1       	rjmp	.+898    	; 0xefa <__stack+0x5fb>
     b78:	81 81       	ldd	r24, Z+1	; 0x01
     b7a:	01 01       	movw	r0, r2
     b7c:	00 00       	nop
     b7e:	00 00       	nop
     b80:	00 00       	nop
     b82:	01 01       	movw	r0, r2
     b84:	01 01       	movw	r0, r2
     b86:	01 01       	movw	r0, r2
     b88:	01 01       	movw	r0, r2
     b8a:	03 03       	mulsu	r16, r19
     b8c:	07 ff       	sbrs	r16, 7
     b8e:	ff fc       	.word	0xfcff	; ????
     b90:	00 00       	nop
     b92:	00 00       	nop
     b94:	0e 0e       	add	r0, r30
     b96:	1c 1c       	adc	r1, r12
     b98:	1c 1c       	adc	r1, r12
     b9a:	1c 1c       	adc	r1, r12
     b9c:	1c 1e       	adc	r1, r28
     b9e:	0e 0f       	add	r16, r30
     ba0:	07 03       	mulsu	r16, r23
	...
     bbe:	80 80       	ld	r8, Z
     bc0:	c0 c0       	rjmp	.+384    	; 0xd42 <__stack+0x443>
     bc2:	c0 c0       	rjmp	.+384    	; 0xd44 <__stack+0x445>
     bc4:	c0 c0       	rjmp	.+384    	; 0xd46 <__stack+0x447>
     bc6:	c0 80       	ld	r12, Z
     bc8:	00 00       	nop
     bca:	00 00       	nop
     bcc:	00 e0       	ldi	r16, 0x00	; 0
     bce:	f8 fe       	.word	0xfef8	; ????
     bd0:	1f 07       	cpc	r17, r31
     bd2:	83 83       	std	Z+3, r24	; 0x03
     bd4:	81 81       	ldd	r24, Z+1	; 0x01
     bd6:	81 81       	ldd	r24, Z+1	; 0x01
     bd8:	81 03       	fmuls	r16, r17
     bda:	03 00       	.word	0x0003	; ????
     bdc:	00 00       	nop
     bde:	00 00       	nop
     be0:	ff ff       	.word	0xffff	; ????
     be2:	ff 87       	std	Y+15, r31	; 0x0f
     be4:	07 03       	mulsu	r16, r23
     be6:	03 03       	mulsu	r16, r19
     be8:	03 03       	mulsu	r16, r19
     bea:	07 0f       	add	r16, r23
     bec:	ff fe       	.word	0xfeff	; ????
     bee:	fc 00       	.word	0x00fc	; ????
     bf0:	00 00       	nop
     bf2:	00 00       	nop
     bf4:	03 07       	cpc	r16, r19
     bf6:	0f 1e       	adc	r0, r31
     bf8:	1c 1c       	adc	r1, r12
     bfa:	1c 1c       	adc	r1, r12
     bfc:	1c 0e       	add	r1, r28
     bfe:	0f 07       	cpc	r16, r31
     c00:	03 00       	.word	0x0003	; ????
	...
     c16:	00 00       	nop
     c18:	00 c0       	rjmp	.+0      	; 0xc1a <__stack+0x31b>
     c1a:	c0 c0       	rjmp	.+384    	; 0xd9c <__stack+0x49d>
     c1c:	c0 c0       	rjmp	.+384    	; 0xd9e <__stack+0x49f>
     c1e:	c0 c0       	rjmp	.+384    	; 0xda0 <__stack+0x4a1>
     c20:	c0 c0       	rjmp	.+384    	; 0xda2 <__stack+0x4a3>
     c22:	c0 c0       	rjmp	.+384    	; 0xda4 <__stack+0x4a5>
     c24:	c0 c0       	rjmp	.+384    	; 0xda6 <__stack+0x4a7>
     c26:	c0 c0       	rjmp	.+384    	; 0xda8 <__stack+0x4a9>
     c28:	00 00       	nop
     c2a:	00 00       	nop
     c2c:	01 01       	movw	r0, r2
     c2e:	01 01       	movw	r0, r2
     c30:	01 01       	movw	r0, r2
     c32:	01 01       	movw	r0, r2
     c34:	01 c1       	rjmp	.+514    	; 0xe38 <__stack+0x539>
     c36:	f1 ff       	sbrs	r31, 1
     c38:	3f 0f       	add	r19, r31
     c3a:	03 00       	.word	0x0003	; ????
	...
     c44:	80 f0       	brcs	.+32     	; 0xc66 <__stack+0x367>
     c46:	fc 7f       	andi	r31, 0xFC	; 252
     c48:	1f 07       	cpc	r17, r31
     c4a:	01 00       	.word	0x0001	; ????
	...
     c54:	00 18       	sub	r0, r0
     c56:	1e 1f       	adc	r17, r30
     c58:	0f 03       	fmul	r16, r23
	...
     c7a:	80 80       	ld	r8, Z
     c7c:	c0 c0       	rjmp	.+384    	; 0xdfe <__stack+0x4ff>
     c7e:	c0 c0       	rjmp	.+384    	; 0xe00 <__stack+0x501>
     c80:	c0 c0       	rjmp	.+384    	; 0xe02 <__stack+0x503>
     c82:	c0 80       	ld	r12, Z
     c84:	00 00       	nop
     c86:	00 00       	nop
     c88:	00 00       	nop
     c8a:	00 3e       	cpi	r16, 0xE0	; 224
     c8c:	7f ff       	.word	0xff7f	; ????
     c8e:	e3 c1       	rjmp	.+966    	; 0x1056 <__stack+0x757>
     c90:	81 01       	movw	r16, r2
     c92:	01 81       	ldd	r16, Z+1	; 0x01
     c94:	81 e3       	ldi	r24, 0x31	; 49
     c96:	ff 7f       	andi	r31, 0xFF	; 255
     c98:	1e 00       	.word	0x001e	; ????
     c9a:	00 00       	nop
     c9c:	00 e0       	ldi	r16, 0x00	; 0
     c9e:	f0 f8       	bld	r15, 0
     ca0:	1c 0d       	add	r17, r12
     ca2:	07 07       	cpc	r16, r23
     ca4:	07 07       	cpc	r16, r23
     ca6:	07 0f       	add	r16, r23
     ca8:	0e 1c       	adc	r0, r14
     caa:	f8 f8       	.word	0xf8f8	; ????
     cac:	e0 00       	.word	0x00e0	; ????
     cae:	00 00       	nop
     cb0:	03 07       	cpc	r16, r19
     cb2:	0f 0f       	add	r16, r31
     cb4:	1e 1c       	adc	r1, r14
     cb6:	1c 1c       	adc	r1, r12
     cb8:	1c 1c       	adc	r1, r12
     cba:	1c 1e       	adc	r1, r28
     cbc:	0f 0f       	add	r16, r31
     cbe:	07 01       	movw	r0, r14
	...
     cd8:	00 80       	ld	r0, Z
     cda:	c0 c0       	rjmp	.+384    	; 0xe5c <__stack+0x55d>
     cdc:	c0 c0       	rjmp	.+384    	; 0xe5e <__stack+0x55f>
     cde:	c0 c0       	rjmp	.+384    	; 0xe60 <__stack+0x561>
     ce0:	c0 80       	ld	r12, Z
     ce2:	00 00       	nop
     ce4:	00 00       	nop
     ce6:	00 00       	nop
     ce8:	00 fc       	sbrc	r0, 0
     cea:	fe ff       	.word	0xfffe	; ????
     cec:	87 03       	fmuls	r16, r23
     cee:	01 01       	movw	r0, r2
     cf0:	01 01       	movw	r0, r2
     cf2:	01 03       	mulsu	r16, r17
     cf4:	0f ff       	.word	0xff0f	; ????
     cf6:	fe f0       	brts	.+62     	; 0xd36 <__stack+0x437>
     cf8:	00 00       	nop
     cfa:	00 00       	nop
     cfc:	00 03       	mulsu	r16, r16
     cfe:	07 07       	cpc	r16, r23
     d00:	0f 0e       	add	r0, r31
     d02:	0e 0e       	add	r0, r30
     d04:	0e 0e       	add	r0, r30
     d06:	07 c7       	rjmp	.+3598   	; 0x1b16 <__stack+0x1217>
     d08:	ff ff       	.word	0xffff	; ????
     d0a:	1f 00       	.word	0x001f	; ????
     d0c:	00 00       	nop
     d0e:	00 00       	nop
     d10:	0e 0e       	add	r0, r30
     d12:	1c 1c       	adc	r1, r12
     d14:	1c 1c       	adc	r1, r12
     d16:	1c 1e       	adc	r1, r28
     d18:	0e 0f       	add	r16, r30
     d1a:	07 03       	mulsu	r16, r23
	...
     d40:	00 f0       	brcs	.+0      	; 0xd42 <__stack+0x443>
     d42:	f0 f0       	brcs	.+60     	; 0xd80 <__stack+0x481>
     d44:	f0 00       	.word	0x00f0	; ????
	...
     d52:	00 00       	nop
     d54:	00 1e       	adc	r0, r16
     d56:	1e 1e       	adc	r1, r30
     d58:	1e 00       	.word	0x001e	; ????
	...
     d72:	00 f0       	brcs	.+0      	; 0xd74 <__stack+0x475>
     d74:	f0 f0       	brcs	.+60     	; 0xdb2 <__stack+0x4b3>
     d76:	f0 00       	.word	0x00f0	; ????
	...
     d84:	00 00       	nop
     d86:	c0 fe       	sbrs	r12, 0
     d88:	7e 1e       	adc	r7, r30
     d8a:	00 00       	nop
     d8c:	00 00       	nop
     d8e:	00 03       	mulsu	r16, r16
     d90:	03 01       	movw	r0, r6
	...
     dae:	00 80       	ld	r0, Z
     db0:	80 c0       	rjmp	.+256    	; 0xeb2 <__stack+0x5b3>
     db2:	c0 e0       	ldi	r28, 0x00	; 0
     db4:	e0 70       	andi	r30, 0x00	; 0
     db6:	70 38       	cpi	r23, 0x80	; 128
     db8:	38 1c       	adc	r3, r8
     dba:	0c 00       	.word	0x000c	; ????
     dbc:	00 0e       	add	r0, r16
     dbe:	0e 1f       	adc	r16, r30
     dc0:	1b 3b       	cpi	r17, 0xBB	; 187
     dc2:	33 71       	andi	r19, 0x13	; 19
     dc4:	61 e0       	ldi	r22, 0x01	; 1
     dc6:	e0 c0       	rjmp	.+448    	; 0xf88 <__stack+0x689>
     dc8:	c0 80       	ld	r12, Z
     dca:	80 00       	.word	0x0080	; ????
	...
     dd8:	00 01       	movw	r0, r0
     dda:	01 03       	mulsu	r16, r17
     ddc:	03 07       	cpc	r16, r19
     dde:	06 00       	.word	0x0006	; ????
	...
     e04:	00 00       	nop
     e06:	c0 c0       	rjmp	.+384    	; 0xf88 <__stack+0x689>
     e08:	c0 c0       	rjmp	.+384    	; 0xf8a <__stack+0x68b>
     e0a:	c0 c0       	rjmp	.+384    	; 0xf8c <__stack+0x68d>
     e0c:	c0 c0       	rjmp	.+384    	; 0xf8e <__stack+0x68f>
     e0e:	c0 c0       	rjmp	.+384    	; 0xf90 <__stack+0x691>
     e10:	c0 c0       	rjmp	.+384    	; 0xf92 <__stack+0x693>
     e12:	c0 c0       	rjmp	.+384    	; 0xf94 <__stack+0x695>
     e14:	c0 00       	.word	0x00c0	; ????
     e16:	00 00       	nop
     e18:	e1 e1       	ldi	r30, 0x11	; 17
     e1a:	e1 e1       	ldi	r30, 0x11	; 17
     e1c:	e1 e1       	ldi	r30, 0x11	; 17
     e1e:	e1 e1       	ldi	r30, 0x11	; 17
     e20:	e1 e1       	ldi	r30, 0x11	; 17
     e22:	e1 e1       	ldi	r30, 0x11	; 17
     e24:	e1 e1       	ldi	r30, 0x11	; 17
     e26:	e1 00       	.word	0x00e1	; ????
	...
     e60:	1c 1c       	adc	r1, r12
     e62:	38 38       	cpi	r19, 0x88	; 136
     e64:	70 70       	andi	r23, 0x00	; 0
     e66:	e0 e0       	ldi	r30, 0x00	; 0
     e68:	c0 c0       	rjmp	.+384    	; 0xfea <__stack+0x6eb>
     e6a:	80 80       	ld	r8, Z
     e6c:	00 00       	nop
     e6e:	00 00       	nop
     e70:	00 00       	nop
     e72:	00 80       	ld	r0, Z
     e74:	80 80       	ld	r8, Z
     e76:	c0 c0       	rjmp	.+384    	; 0xff8 <__stack+0x6f9>
     e78:	e0 e0       	ldi	r30, 0x00	; 0
     e7a:	71 71       	andi	r23, 0x11	; 17
     e7c:	3b 3b       	cpi	r19, 0xBB	; 187
     e7e:	1f 1f       	adc	r17, r31
     e80:	0e 00       	.word	0x000e	; ????
     e82:	00 00       	nop
     e84:	07 07       	cpc	r16, r23
     e86:	03 03       	mulsu	r16, r19
     e88:	01 01       	movw	r0, r2
	...
     ea6:	00 00       	nop
     ea8:	c0 e0       	ldi	r28, 0x00	; 0
     eaa:	60 70       	andi	r22, 0x00	; 0
     eac:	70 70       	andi	r23, 0x00	; 0
     eae:	70 70       	andi	r23, 0x00	; 0
     eb0:	f0 e0       	ldi	r31, 0x00	; 0
     eb2:	e0 c0       	rjmp	.+448    	; 0x1074 <__stack+0x775>
     eb4:	80 00       	.word	0x0080	; ????
	...
     ebe:	00 00       	nop
     ec0:	00 80       	ld	r0, Z
     ec2:	c1 ff       	sbrs	r28, 1
     ec4:	ff 7f       	andi	r31, 0xFF	; 255
	...
     ece:	7f 7f       	andi	r23, 0xFF	; 255
     ed0:	7f 03       	fmul	r23, r23
     ed2:	03 03       	mulsu	r16, r19
     ed4:	01 00       	.word	0x0001	; ????
	...
     ede:	00 1e       	adc	r0, r16
     ee0:	1e 1e       	adc	r1, r30
     ee2:	0c 00       	.word	0x000c	; ????
	...
     f04:	80 80       	ld	r8, Z
     f06:	c0 c0       	rjmp	.+384    	; 0x1088 <__stack+0x789>
     f08:	c0 e0       	ldi	r28, 0x00	; 0
     f0a:	e0 e0       	ldi	r30, 0x00	; 0
     f0c:	e0 e0       	ldi	r30, 0x00	; 0
     f0e:	e0 e0       	ldi	r30, 0x00	; 0
     f10:	e0 e0       	ldi	r30, 0x00	; 0
     f12:	c0 c0       	rjmp	.+384    	; 0x1094 <__stack+0x795>
     f14:	80 80       	ld	r8, Z
	...
     f1e:	00 00       	nop
     f20:	c0 f0       	brcs	.+48     	; 0xf52 <__stack+0x653>
     f22:	fc 3e       	cpi	r31, 0xEC	; 236
     f24:	0f 07       	cpc	r16, r31
     f26:	83 e3       	ldi	r24, 0x33	; 51
     f28:	f1 71       	andi	r31, 0x11	; 17
     f2a:	78 38       	cpi	r23, 0x88	; 136
     f2c:	38 38       	cpi	r19, 0x88	; 136
     f2e:	78 70       	andi	r23, 0x08	; 8
     f30:	e0 f8       	bld	r14, 0
     f32:	79 01       	movw	r14, r18
     f34:	03 03       	mulsu	r16, r19
     f36:	0f ff       	.word	0xff0f	; ????
     f38:	fe f8       	.word	0xf8fe	; ????
     f3a:	00 00       	nop
     f3c:	00 00       	nop
     f3e:	00 00       	nop
     f40:	fe ff       	.word	0xfffe	; ????
     f42:	ff 00       	.word	0x00ff	; ????
     f44:	00 00       	nop
     f46:	fe ff       	.word	0xfffe	; ????
     f48:	ff c1       	rjmp	.+1022   	; 0x1348 <__stack+0xa49>
     f4a:	80 80       	ld	r8, Z
     f4c:	80 c0       	rjmp	.+256    	; 0x104e <__stack+0x74f>
     f4e:	c0 e0       	ldi	r28, 0x00	; 0
     f50:	fc ff       	.word	0xfffc	; ????
     f52:	cf 80       	ldd	r12, Y+7	; 0x07
     f54:	80 80       	ld	r8, Z
     f56:	c0 f0       	brcs	.+48     	; 0xf88 <__stack+0x689>
     f58:	ff 3f       	cpi	r31, 0xFF	; 255
     f5a:	07 00       	.word	0x0007	; ????
     f5c:	00 00       	nop
     f5e:	00 00       	nop
     f60:	00 03       	mulsu	r16, r16
     f62:	0f 3f       	cpi	r16, 0xFF	; 255
     f64:	7c 78       	andi	r23, 0x8C	; 140
     f66:	f0 e0       	ldi	r31, 0x00	; 0
     f68:	e1 c3       	rjmp	.+1986   	; 0x172c <__stack+0xe2d>
     f6a:	c3 c3       	rjmp	.+1926   	; 0x16f2 <__stack+0xdf3>
     f6c:	c3 c3       	rjmp	.+1926   	; 0x16f4 <__stack+0xdf5>
     f6e:	c1 c0       	rjmp	.+386    	; 0x10f2 <__stack+0x7f3>
     f70:	c0 c1       	rjmp	.+896    	; 0x12f2 <__stack+0x9f3>
     f72:	e1 e3       	ldi	r30, 0x31	; 49
     f74:	03 03       	mulsu	r16, r19
     f76:	03 01       	movw	r0, r6
     f78:	01 00       	.word	0x0001	; ????
	...
     f86:	00 00       	nop
     f88:	00 01       	movw	r0, r0
     f8a:	01 01       	movw	r0, r2
     f8c:	01 01       	movw	r0, r2
     f8e:	01 01       	movw	r0, r2
     f90:	01 01       	movw	r0, r2
     f92:	01 00       	.word	0x0001	; ????
	...
     fa8:	80 c0       	rjmp	.+256    	; 0x10aa <__stack+0x7ab>
     faa:	c0 c0       	rjmp	.+384    	; 0x112c <__stack+0x82d>
     fac:	c0 00       	.word	0x00c0	; ????
	...
     fba:	80 f0       	brcs	.+32     	; 0xfdc <__stack+0x6dd>
     fbc:	fc 7f       	andi	r31, 0xFC	; 252
     fbe:	0f 01       	movw	r0, r30
     fc0:	0f 3f       	cpi	r16, 0xFF	; 255
     fc2:	fe f8       	.word	0xf8fe	; ????
     fc4:	c0 00       	.word	0x00c0	; ????
     fc6:	00 00       	nop
     fc8:	00 00       	nop
     fca:	00 00       	nop
     fcc:	80 e0       	ldi	r24, 0x00	; 0
     fce:	fc ff       	.word	0xfffc	; ????
     fd0:	7f 71       	andi	r23, 0x1F	; 31
     fd2:	70 70       	andi	r23, 0x00	; 0
     fd4:	70 70       	andi	r23, 0x00	; 0
     fd6:	70 71       	andi	r23, 0x10	; 16
     fd8:	7f 7f       	andi	r23, 0xFF	; 255
     fda:	fe f8       	.word	0xf8fe	; ????
     fdc:	c0 00       	.word	0x00c0	; ????
     fde:	00 00       	nop
     fe0:	1c 1f       	adc	r17, r28
     fe2:	1f 03       	fmul	r17, r23
	...
     fec:	00 00       	nop
     fee:	00 03       	mulsu	r16, r16
     ff0:	1f 1f       	adc	r17, r31
     ff2:	1e 10       	cpse	r1, r14
	...
    100c:	c0 c0       	rjmp	.+384    	; 0x118e <__stack+0x88f>
    100e:	c0 c0       	rjmp	.+384    	; 0x1190 <__stack+0x891>
    1010:	c0 c0       	rjmp	.+384    	; 0x1192 <__stack+0x893>
    1012:	c0 c0       	rjmp	.+384    	; 0x1194 <__stack+0x895>
    1014:	c0 c0       	rjmp	.+384    	; 0x1196 <__stack+0x897>
    1016:	80 80       	ld	r8, Z
	...
    1020:	ff ff       	.word	0xffff	; ????
    1022:	ff 81       	ldd	r31, Y+7	; 0x07
    1024:	81 81       	ldd	r24, Z+1	; 0x01
    1026:	81 81       	ldd	r24, Z+1	; 0x01
    1028:	81 c3       	rjmp	.+1794   	; 0x172c <__stack+0xe2d>
    102a:	c3 ff       	sbrs	r28, 3
    102c:	7f 3e       	cpi	r23, 0xEF	; 239
    102e:	00 00       	nop
    1030:	00 00       	nop
    1032:	00 00       	nop
    1034:	ff ff       	.word	0xffff	; ????
    1036:	ff 03       	fmulsu	r23, r23
    1038:	03 03       	mulsu	r16, r19
    103a:	03 03       	mulsu	r16, r19
    103c:	03 03       	mulsu	r16, r19
    103e:	07 0f       	add	r16, r23
    1040:	fe fc       	.word	0xfcfe	; ????
    1042:	f8 00       	.word	0x00f8	; ????
    1044:	00 00       	nop
    1046:	00 00       	nop
    1048:	1f 1f       	adc	r17, r31
    104a:	1f 1c       	adc	r1, r15
    104c:	1c 1c       	adc	r1, r12
    104e:	1c 1c       	adc	r1, r12
    1050:	1c 1c       	adc	r1, r12
    1052:	0e 0f       	add	r16, r30
    1054:	07 03       	mulsu	r16, r23
    1056:	01 00       	.word	0x0001	; ????
	...
    1074:	80 80       	ld	r8, Z
    1076:	c0 c0       	rjmp	.+384    	; 0x11f8 <__stack+0x8f9>
    1078:	c0 c0       	rjmp	.+384    	; 0x11fa <__stack+0x8fb>
    107a:	c0 c0       	rjmp	.+384    	; 0x11fc <__stack+0x8fd>
    107c:	c0 80       	ld	r12, Z
    107e:	80 00       	.word	0x0080	; ????
    1080:	00 00       	nop
    1082:	00 c0       	rjmp	.+0      	; 0x1084 <__stack+0x785>
    1084:	f8 fc       	.word	0xfcf8	; ????
    1086:	3f 0f       	add	r19, r31
    1088:	07 03       	mulsu	r16, r23
    108a:	01 01       	movw	r0, r2
    108c:	01 01       	movw	r0, r2
    108e:	01 01       	movw	r0, r2
    1090:	03 03       	mulsu	r16, r19
    1092:	07 07       	cpc	r16, r23
    1094:	00 00       	nop
    1096:	00 3f       	cpi	r16, 0xF0	; 240
    1098:	ff ff       	.word	0xffff	; ????
    109a:	e0 80       	ld	r14, Z
	...
    10ac:	00 03       	mulsu	r16, r16
    10ae:	07 0f       	add	r16, r23
    10b0:	0f 1e       	adc	r0, r31
    10b2:	1c 1c       	adc	r1, r12
    10b4:	1c 1c       	adc	r1, r12
    10b6:	1c 1c       	adc	r1, r12
    10b8:	1e 0e       	add	r1, r30
    10ba:	0f 07       	cpc	r16, r31
	...
    10d4:	c0 c0       	rjmp	.+384    	; 0x1256 <__stack+0x957>
    10d6:	c0 c0       	rjmp	.+384    	; 0x1258 <__stack+0x959>
    10d8:	c0 c0       	rjmp	.+384    	; 0x125a <__stack+0x95b>
    10da:	c0 c0       	rjmp	.+384    	; 0x125c <__stack+0x95d>
    10dc:	c0 c0       	rjmp	.+384    	; 0x125e <__stack+0x95f>
    10de:	c0 80       	ld	r12, Z
    10e0:	80 00       	.word	0x0080	; ????
	...
    10ea:	00 ff       	sbrs	r16, 0
    10ec:	ff ff       	.word	0xffff	; ????
    10ee:	01 01       	movw	r0, r2
    10f0:	01 01       	movw	r0, r2
    10f2:	01 01       	movw	r0, r2
    10f4:	01 03       	mulsu	r16, r17
    10f6:	03 07       	cpc	r16, r19
    10f8:	0f 3f       	cpi	r16, 0xFF	; 255
    10fa:	fe f8       	.word	0xf8fe	; ????
    10fc:	e0 00       	.word	0x00e0	; ????
    10fe:	00 00       	nop
    1100:	00 00       	nop
    1102:	ff ff       	.word	0xffff	; ????
    1104:	ff 00       	.word	0x00ff	; ????
	...
    110e:	00 80       	ld	r0, Z
    1110:	e0 ff       	sbrs	r30, 0
    1112:	ff 1f       	adc	r31, r31
    1114:	00 00       	nop
    1116:	00 00       	nop
    1118:	00 1f       	adc	r16, r16
    111a:	1f 1f       	adc	r17, r31
    111c:	1c 1c       	adc	r1, r12
    111e:	1c 1c       	adc	r1, r12
    1120:	1c 1c       	adc	r1, r12
    1122:	1c 1e       	adc	r1, r28
    1124:	0e 0f       	add	r16, r30
    1126:	07 03       	mulsu	r16, r23
    1128:	01 00       	.word	0x0001	; ????
	...
    1146:	00 c0       	rjmp	.+0      	; 0x1148 <__stack+0x849>
    1148:	c0 c0       	rjmp	.+384    	; 0x12ca <__stack+0x9cb>
    114a:	c0 c0       	rjmp	.+384    	; 0x12cc <__stack+0x9cd>
    114c:	c0 c0       	rjmp	.+384    	; 0x12ce <__stack+0x9cf>
    114e:	c0 c0       	rjmp	.+384    	; 0x12d0 <__stack+0x9d1>
    1150:	c0 c0       	rjmp	.+384    	; 0x12d2 <__stack+0x9d3>
    1152:	c0 c0       	rjmp	.+384    	; 0x12d4 <__stack+0x9d5>
    1154:	00 00       	nop
    1156:	00 00       	nop
    1158:	00 ff       	sbrs	r16, 0
    115a:	ff ff       	.word	0xffff	; ????
    115c:	01 01       	movw	r0, r2
    115e:	01 01       	movw	r0, r2
    1160:	01 01       	movw	r0, r2
    1162:	01 01       	movw	r0, r2
    1164:	01 01       	movw	r0, r2
    1166:	00 00       	nop
    1168:	00 00       	nop
    116a:	00 ff       	sbrs	r16, 0
    116c:	ff ff       	.word	0xffff	; ????
    116e:	07 07       	cpc	r16, r23
    1170:	07 07       	cpc	r16, r23
    1172:	07 07       	cpc	r16, r23
    1174:	07 07       	cpc	r16, r23
    1176:	07 00       	.word	0x0007	; ????
    1178:	00 00       	nop
    117a:	00 00       	nop
    117c:	00 1f       	adc	r16, r16
    117e:	1f 1f       	adc	r17, r31
    1180:	1c 1c       	adc	r1, r12
    1182:	1c 1c       	adc	r1, r12
    1184:	1c 1c       	adc	r1, r12
    1186:	1c 1c       	adc	r1, r12
    1188:	1c 1c       	adc	r1, r12
	...
    119e:	00 00       	nop
    11a0:	00 c0       	rjmp	.+0      	; 0x11a2 <__stack+0x8a3>
    11a2:	c0 c0       	rjmp	.+384    	; 0x1324 <__stack+0xa25>
    11a4:	c0 c0       	rjmp	.+384    	; 0x1326 <__stack+0xa27>
    11a6:	c0 c0       	rjmp	.+384    	; 0x1328 <__stack+0xa29>
    11a8:	c0 c0       	rjmp	.+384    	; 0x132a <__stack+0xa2b>
    11aa:	c0 c0       	rjmp	.+384    	; 0x132c <__stack+0xa2d>
    11ac:	c0 00       	.word	0x00c0	; ????
    11ae:	00 00       	nop
    11b0:	00 00       	nop
    11b2:	ff ff       	.word	0xffff	; ????
    11b4:	ff 01       	movw	r30, r30
    11b6:	01 01       	movw	r0, r2
    11b8:	01 01       	movw	r0, r2
    11ba:	01 01       	movw	r0, r2
    11bc:	01 01       	movw	r0, r2
    11be:	00 00       	nop
    11c0:	00 00       	nop
    11c2:	00 ff       	sbrs	r16, 0
    11c4:	ff ff       	.word	0xffff	; ????
    11c6:	07 07       	cpc	r16, r23
    11c8:	07 07       	cpc	r16, r23
    11ca:	07 07       	cpc	r16, r23
    11cc:	07 07       	cpc	r16, r23
    11ce:	02 00       	.word	0x0002	; ????
    11d0:	00 00       	nop
    11d2:	00 00       	nop
    11d4:	1f 1f       	adc	r17, r31
    11d6:	1f 00       	.word	0x001f	; ????
	...
    11f8:	00 00       	nop
    11fa:	80 80       	ld	r8, Z
    11fc:	80 c0       	rjmp	.+256    	; 0x12fe <__stack+0x9ff>
    11fe:	c0 c0       	rjmp	.+384    	; 0x1380 <__stack+0xa81>
    1200:	c0 c0       	rjmp	.+384    	; 0x1382 <__stack+0xa83>
    1202:	c0 c0       	rjmp	.+384    	; 0x1384 <__stack+0xa85>
    1204:	c0 80       	ld	r12, Z
    1206:	80 00       	.word	0x0080	; ????
    1208:	00 00       	nop
    120a:	00 00       	nop
    120c:	c0 f8       	bld	r12, 0
    120e:	fc 3e       	cpi	r31, 0xEC	; 236
    1210:	0f 07       	cpc	r16, r31
    1212:	03 03       	mulsu	r16, r19
    1214:	01 01       	movw	r0, r2
    1216:	01 01       	movw	r0, r2
    1218:	01 01       	movw	r0, r2
    121a:	01 03       	mulsu	r16, r17
    121c:	03 07       	cpc	r16, r19
    121e:	07 00       	.word	0x0007	; ????
    1220:	00 00       	nop
    1222:	00 1f       	adc	r16, r16
    1224:	ff ff       	.word	0xffff	; ????
    1226:	e0 80       	ld	r14, Z
    1228:	00 00       	nop
    122a:	00 00       	nop
    122c:	00 07       	cpc	r16, r16
    122e:	07 07       	cpc	r16, r23
    1230:	07 07       	cpc	r16, r23
    1232:	07 ff       	sbrs	r16, 7
    1234:	ff ff       	.word	0xffff	; ????
    1236:	00 00       	nop
    1238:	00 00       	nop
    123a:	00 00       	nop
    123c:	01 03       	mulsu	r16, r17
    123e:	07 0f       	add	r16, r23
    1240:	0e 0e       	add	r0, r30
    1242:	1c 1c       	adc	r1, r12
    1244:	1c 1c       	adc	r1, r12
    1246:	1c 1c       	adc	r1, r12
    1248:	1c 0e       	add	r1, r28
    124a:	0f 0f       	add	r16, r31
    124c:	07 00       	.word	0x0007	; ????
	...
    1266:	00 00       	nop
    1268:	00 c0       	rjmp	.+0      	; 0x126a <__stack+0x96b>
    126a:	c0 c0       	rjmp	.+384    	; 0x13ec <__stack+0xaed>
	...
    1274:	00 00       	nop
    1276:	00 c0       	rjmp	.+0      	; 0x1278 <__stack+0x979>
    1278:	c0 c0       	rjmp	.+384    	; 0x13fa <__stack+0xafb>
    127a:	00 00       	nop
    127c:	00 00       	nop
    127e:	00 00       	nop
    1280:	ff ff       	.word	0xffff	; ????
    1282:	ff 00       	.word	0x00ff	; ????
	...
    128c:	00 00       	nop
    128e:	ff ff       	.word	0xffff	; ????
    1290:	ff 00       	.word	0x00ff	; ????
    1292:	00 00       	nop
    1294:	00 00       	nop
    1296:	00 ff       	sbrs	r16, 0
    1298:	ff ff       	.word	0xffff	; ????
    129a:	07 07       	cpc	r16, r23
    129c:	07 07       	cpc	r16, r23
    129e:	07 07       	cpc	r16, r23
    12a0:	07 07       	cpc	r16, r23
    12a2:	07 07       	cpc	r16, r23
    12a4:	07 ff       	sbrs	r16, 7
    12a6:	ff ff       	.word	0xffff	; ????
    12a8:	00 00       	nop
    12aa:	00 00       	nop
    12ac:	00 00       	nop
    12ae:	1f 1f       	adc	r17, r31
    12b0:	1f 00       	.word	0x001f	; ????
	...
    12ba:	00 00       	nop
    12bc:	1f 1f       	adc	r17, r31
    12be:	1f 00       	.word	0x001f	; ????
	...
    12dc:	c0 c0       	rjmp	.+384    	; 0x145e <__stack+0xb5f>
    12de:	c0 00       	.word	0x00c0	; ????
    12e0:	00 00       	nop
    12e2:	00 00       	nop
    12e4:	00 ff       	sbrs	r16, 0
    12e6:	ff ff       	.word	0xffff	; ????
    12e8:	00 00       	nop
    12ea:	00 00       	nop
    12ec:	00 00       	nop
    12ee:	ff ff       	.word	0xffff	; ????
    12f0:	ff 00       	.word	0x00ff	; ????
    12f2:	00 00       	nop
    12f4:	00 00       	nop
    12f6:	00 1f       	adc	r16, r16
    12f8:	1f 1f       	adc	r17, r31
	...
    130a:	00 00       	nop
    130c:	c0 c0       	rjmp	.+384    	; 0x148e <__stack+0xb8f>
    130e:	c0 00       	.word	0x00c0	; ????
	...
    1318:	ff ff       	.word	0xffff	; ????
    131a:	ff 00       	.word	0x00ff	; ????
	...
    1324:	ff ff       	.word	0xffff	; ????
    1326:	ff 00       	.word	0x00ff	; ????
    1328:	00 00       	nop
    132a:	0e 1e       	adc	r0, r30
    132c:	1c 1c       	adc	r1, r12
    132e:	1c 1e       	adc	r1, r28
    1330:	0f 0f       	add	r16, r31
    1332:	03 00       	.word	0x0003	; ????
	...
    1344:	00 c0       	rjmp	.+0      	; 0x1346 <__stack+0xa47>
    1346:	c0 c0       	rjmp	.+384    	; 0x14c8 <__stack+0xbc9>
	...
    1350:	c0 c0       	rjmp	.+384    	; 0x14d2 <__stack+0xbd3>
    1352:	c0 40       	sbci	r28, 0x00	; 0
    1354:	00 00       	nop
    1356:	00 00       	nop
    1358:	ff ff       	.word	0xffff	; ????
    135a:	ff 00       	.word	0x00ff	; ????
    135c:	80 c0       	rjmp	.+256    	; 0x145e <__stack+0xb5f>
    135e:	f0 78       	andi	r31, 0x80	; 128
    1360:	3c 1e       	adc	r3, r28
    1362:	0f 07       	cpc	r16, r31
    1364:	03 00       	.word	0x0003	; ????
    1366:	00 00       	nop
    1368:	00 00       	nop
    136a:	00 ff       	sbrs	r16, 0
    136c:	ff ff       	.word	0xffff	; ????
    136e:	03 07       	cpc	r16, r19
    1370:	0f 3f       	cpi	r16, 0xFF	; 255
    1372:	7c f8       	.word	0xf87c	; ????
    1374:	e0 c0       	rjmp	.+448    	; 0x1536 <__stack+0xc37>
    1376:	80 00       	.word	0x0080	; ????
    1378:	00 00       	nop
    137a:	00 00       	nop
    137c:	00 00       	nop
    137e:	1f 1f       	adc	r17, r31
    1380:	1f 00       	.word	0x001f	; ????
    1382:	00 00       	nop
    1384:	00 00       	nop
    1386:	00 03       	mulsu	r16, r16
    1388:	07 0f       	add	r16, r23
    138a:	1e 1c       	adc	r1, r14
    138c:	18 00       	.word	0x0018	; ????
	...
    13a2:	00 00       	nop
    13a4:	c0 c0       	rjmp	.+384    	; 0x1526 <__stack+0xc27>
    13a6:	c0 00       	.word	0x00c0	; ????
	...
    13b4:	ff ff       	.word	0xffff	; ????
    13b6:	ff 00       	.word	0x00ff	; ????
	...
    13c4:	ff ff       	.word	0xffff	; ????
    13c6:	ff 00       	.word	0x00ff	; ????
	...
    13d4:	1f 1f       	adc	r17, r31
    13d6:	1f 1c       	adc	r1, r15
    13d8:	1c 1c       	adc	r1, r12
    13da:	1c 1c       	adc	r1, r12
    13dc:	1c 1c       	adc	r1, r12
    13de:	1c 1c       	adc	r1, r12
	...
    13f4:	c0 c0       	rjmp	.+384    	; 0x1576 <__stack+0xc77>
    13f6:	c0 c0       	rjmp	.+384    	; 0x1578 <__stack+0xc79>
    13f8:	c0 80       	ld	r12, Z
	...
    1406:	00 00       	nop
    1408:	c0 c0       	rjmp	.+384    	; 0x158a <__stack+0xc8b>
    140a:	c0 c0       	rjmp	.+384    	; 0x158c <__stack+0xc8d>
    140c:	c0 00       	.word	0x00c0	; ????
    140e:	00 00       	nop
    1410:	00 00       	nop
    1412:	00 00       	nop
    1414:	ff ff       	.word	0xffff	; ????
    1416:	ff 03       	fmulsu	r23, r23
    1418:	0f 7f       	andi	r16, 0xFF	; 255
    141a:	fe f0       	brts	.+62     	; 0x145a <__stack+0xb5b>
    141c:	c0 00       	.word	0x00c0	; ????
    141e:	00 00       	nop
    1420:	00 00       	nop
    1422:	00 00       	nop
    1424:	80 f0       	brcs	.+32     	; 0x1446 <__stack+0xb47>
    1426:	fc 7f       	andi	r31, 0xFC	; 252
    1428:	0f 03       	fmul	r16, r23
    142a:	ff ff       	.word	0xffff	; ????
    142c:	ff 00       	.word	0x00ff	; ????
    142e:	00 00       	nop
    1430:	00 00       	nop
    1432:	00 00       	nop
    1434:	ff ff       	.word	0xffff	; ????
    1436:	ff 00       	.word	0x00ff	; ????
    1438:	00 00       	nop
    143a:	01 0f       	add	r16, r17
    143c:	3f fe       	.word	0xfe3f	; ????
    143e:	f8 c0       	rjmp	.+496    	; 0x1630 <__stack+0xd31>
    1440:	00 c0       	rjmp	.+0      	; 0x1442 <__stack+0xb43>
    1442:	f0 fe       	sbrs	r15, 0
    1444:	3f 0f       	add	r19, r31
    1446:	01 00       	.word	0x0001	; ????
    1448:	00 00       	nop
    144a:	ff ff       	.word	0xffff	; ????
    144c:	ff 00       	.word	0x00ff	; ????
    144e:	00 00       	nop
    1450:	00 00       	nop
    1452:	00 00       	nop
    1454:	1f 1f       	adc	r17, r31
    1456:	1f 00       	.word	0x001f	; ????
    1458:	00 00       	nop
    145a:	00 00       	nop
    145c:	00 01       	movw	r0, r0
    145e:	0f 1f       	adc	r16, r31
    1460:	1f 1f       	adc	r17, r31
    1462:	07 01       	movw	r0, r14
    1464:	00 00       	nop
    1466:	00 00       	nop
    1468:	00 00       	nop
    146a:	1f 1f       	adc	r17, r31
    146c:	1f 00       	.word	0x001f	; ????
	...
    1492:	00 00       	nop
    1494:	c0 c0       	rjmp	.+384    	; 0x1616 <__stack+0xd17>
    1496:	c0 c0       	rjmp	.+384    	; 0x1618 <__stack+0xd19>
    1498:	80 00       	.word	0x0080	; ????
	...
    14a2:	00 c0       	rjmp	.+0      	; 0x14a4 <__stack+0xba5>
    14a4:	c0 c0       	rjmp	.+384    	; 0x1626 <__stack+0xd27>
    14a6:	00 00       	nop
    14a8:	00 00       	nop
    14aa:	00 00       	nop
    14ac:	ff ff       	.word	0xffff	; ????
    14ae:	ff 03       	fmulsu	r23, r23
    14b0:	0f 3f       	cpi	r16, 0xFF	; 255
    14b2:	fc f8       	.word	0xf8fc	; ????
    14b4:	e0 80       	ld	r14, Z
    14b6:	00 00       	nop
    14b8:	00 00       	nop
    14ba:	00 ff       	sbrs	r16, 0
    14bc:	ff ff       	.word	0xffff	; ????
    14be:	00 00       	nop
    14c0:	00 00       	nop
    14c2:	00 00       	nop
    14c4:	ff ff       	.word	0xffff	; ????
    14c6:	ff 00       	.word	0x00ff	; ????
    14c8:	00 00       	nop
    14ca:	00 01       	movw	r0, r0
    14cc:	07 1f       	adc	r16, r23
    14ce:	7e fc       	.word	0xfc7e	; ????
    14d0:	f0 c0       	rjmp	.+480    	; 0x16b2 <__stack+0xdb3>
    14d2:	00 ff       	sbrs	r16, 0
    14d4:	ff ff       	.word	0xffff	; ????
    14d6:	00 00       	nop
    14d8:	00 00       	nop
    14da:	00 00       	nop
    14dc:	1f 1f       	adc	r17, r31
    14de:	1f 00       	.word	0x001f	; ????
	...
    14e8:	03 0f       	add	r16, r19
    14ea:	1f 1f       	adc	r17, r31
    14ec:	1f 1f       	adc	r17, r31
	...
    150e:	00 00       	nop
    1510:	80 80       	ld	r8, Z
    1512:	c0 c0       	rjmp	.+384    	; 0x1694 <__stack+0xd95>
    1514:	c0 c0       	rjmp	.+384    	; 0x1696 <__stack+0xd97>
    1516:	c0 c0       	rjmp	.+384    	; 0x1698 <__stack+0xd99>
    1518:	c0 c0       	rjmp	.+384    	; 0x169a <__stack+0xd9b>
    151a:	80 80       	ld	r8, Z
	...
    1524:	e0 f8       	bld	r14, 0
    1526:	fe 3f       	cpi	r31, 0xFE	; 254
    1528:	0f 07       	cpc	r16, r31
    152a:	03 01       	movw	r0, r6
    152c:	01 01       	movw	r0, r2
    152e:	01 01       	movw	r0, r2
    1530:	01 01       	movw	r0, r2
    1532:	03 03       	mulsu	r16, r19
    1534:	0f 3f       	cpi	r16, 0xFF	; 255
    1536:	fe fc       	.word	0xfcfe	; ????
    1538:	e0 00       	.word	0x00e0	; ????
    153a:	00 00       	nop
    153c:	00 3f       	cpi	r16, 0xF0	; 240
    153e:	ff ff       	.word	0xffff	; ????
    1540:	e0 80       	ld	r14, Z
	...
    154a:	00 00       	nop
    154c:	00 80       	ld	r0, Z
    154e:	e0 ff       	sbrs	r30, 0
    1550:	ff 3f       	cpi	r31, 0xFF	; 255
    1552:	00 00       	nop
    1554:	00 00       	nop
    1556:	00 01       	movw	r0, r0
    1558:	03 07       	cpc	r16, r19
    155a:	0f 0e       	add	r0, r31
    155c:	1e 1c       	adc	r1, r14
    155e:	1c 1c       	adc	r1, r12
    1560:	1c 1c       	adc	r1, r12
    1562:	1c 1c       	adc	r1, r12
    1564:	0e 0f       	add	r16, r30
    1566:	07 07       	cpc	r16, r23
    1568:	03 00       	.word	0x0003	; ????
	...
    1586:	00 00       	nop
    1588:	00 c0       	rjmp	.+0      	; 0x158a <__stack+0xc8b>
    158a:	c0 c0       	rjmp	.+384    	; 0x170c <__stack+0xe0d>
    158c:	c0 c0       	rjmp	.+384    	; 0x170e <__stack+0xe0f>
    158e:	c0 c0       	rjmp	.+384    	; 0x1710 <__stack+0xe11>
    1590:	c0 c0       	rjmp	.+384    	; 0x1712 <__stack+0xe13>
    1592:	c0 80       	ld	r12, Z
    1594:	80 00       	.word	0x0080	; ????
    1596:	00 00       	nop
    1598:	00 00       	nop
    159a:	00 00       	nop
    159c:	ff ff       	.word	0xffff	; ????
    159e:	ff 01       	movw	r30, r30
    15a0:	01 01       	movw	r0, r2
    15a2:	01 01       	movw	r0, r2
    15a4:	01 03       	mulsu	r16, r17
    15a6:	87 ff       	sbrs	r24, 7
    15a8:	ff fc       	.word	0xfcff	; ????
    15aa:	00 00       	nop
    15ac:	00 00       	nop
    15ae:	00 ff       	sbrs	r16, 0
    15b0:	ff ff       	.word	0xffff	; ????
    15b2:	0e 0e       	add	r0, r30
    15b4:	0e 0e       	add	r0, r30
    15b6:	0e 0e       	add	r0, r30
    15b8:	07 07       	cpc	r16, r23
    15ba:	03 01       	movw	r0, r6
    15bc:	00 00       	nop
    15be:	00 00       	nop
    15c0:	00 00       	nop
    15c2:	1f 1f       	adc	r17, r31
    15c4:	1f 00       	.word	0x001f	; ????
	...
    15ea:	00 80       	ld	r0, Z
    15ec:	80 c0       	rjmp	.+256    	; 0x16ee <__stack+0xdef>
    15ee:	c0 c0       	rjmp	.+384    	; 0x1770 <__stack+0xe71>
    15f0:	c0 c0       	rjmp	.+384    	; 0x1772 <__stack+0xe73>
    15f2:	c0 c0       	rjmp	.+384    	; 0x1774 <__stack+0xe75>
    15f4:	80 80       	ld	r8, Z
    15f6:	80 00       	.word	0x0080	; ????
    15f8:	00 00       	nop
    15fa:	00 00       	nop
    15fc:	00 00       	nop
    15fe:	00 e0       	ldi	r16, 0x00	; 0
    1600:	f8 fe       	.word	0xfef8	; ????
    1602:	3f 0f       	add	r19, r31
    1604:	07 03       	mulsu	r16, r23
    1606:	01 01       	movw	r0, r2
    1608:	01 01       	movw	r0, r2
    160a:	01 01       	movw	r0, r2
    160c:	01 03       	mulsu	r16, r17
    160e:	03 0f       	add	r16, r19
    1610:	3f fe       	.word	0xfe3f	; ????
    1612:	fc e0       	ldi	r31, 0x0C	; 12
    1614:	00 00       	nop
    1616:	00 00       	nop
    1618:	3f ff       	.word	0xff3f	; ????
    161a:	ff e0       	ldi	r31, 0x0F	; 15
    161c:	80 00       	.word	0x0080	; ????
	...
    1626:	00 00       	nop
    1628:	80 e0       	ldi	r24, 0x00	; 0
    162a:	ff ff       	.word	0xffff	; ????
    162c:	3f 00       	.word	0x003f	; ????
    162e:	00 00       	nop
    1630:	00 00       	nop
    1632:	01 03       	mulsu	r16, r17
    1634:	07 0f       	add	r16, r23
    1636:	0e 1e       	adc	r0, r30
    1638:	1c 1c       	adc	r1, r12
    163a:	1c 1c       	adc	r1, r12
    163c:	1c 1c       	adc	r1, r12
    163e:	1c 0e       	add	r1, r28
    1640:	0f 0f       	add	r16, r31
    1642:	1f 3b       	cpi	r17, 0xBF	; 191
    1644:	38 70       	andi	r19, 0x08	; 8
    1646:	70 e0       	ldi	r23, 0x00	; 0
    1648:	e0 00       	.word	0x00e0	; ????
	...
    1662:	00 00       	nop
    1664:	00 c0       	rjmp	.+0      	; 0x1666 <__stack+0xd67>
    1666:	c0 c0       	rjmp	.+384    	; 0x17e8 <__stack+0xee9>
    1668:	c0 c0       	rjmp	.+384    	; 0x17ea <__stack+0xeeb>
    166a:	c0 c0       	rjmp	.+384    	; 0x17ec <__stack+0xeed>
    166c:	c0 c0       	rjmp	.+384    	; 0x17ee <__stack+0xeef>
    166e:	c0 80       	ld	r12, Z
    1670:	80 00       	.word	0x0080	; ????
    1672:	00 00       	nop
    1674:	00 00       	nop
    1676:	00 00       	nop
    1678:	00 ff       	sbrs	r16, 0
    167a:	ff ff       	.word	0xffff	; ????
    167c:	01 01       	movw	r0, r2
    167e:	01 01       	movw	r0, r2
    1680:	01 01       	movw	r0, r2
    1682:	83 c7       	rjmp	.+3846   	; 0x258a <__stack+0x1c8b>
    1684:	ff ff       	.word	0xffff	; ????
    1686:	7e 00       	.word	0x007e	; ????
    1688:	00 00       	nop
    168a:	00 00       	nop
    168c:	00 ff       	sbrs	r16, 0
    168e:	ff ff       	.word	0xffff	; ????
    1690:	07 07       	cpc	r16, r23
    1692:	07 07       	cpc	r16, r23
    1694:	0f 0f       	add	r16, r31
    1696:	3f ff       	.word	0xff3f	; ????
    1698:	f1 e0       	ldi	r31, 0x01	; 1
    169a:	00 00       	nop
    169c:	00 00       	nop
    169e:	00 00       	nop
    16a0:	00 1f       	adc	r16, r16
    16a2:	1f 1f       	adc	r17, r31
    16a4:	00 00       	nop
    16a6:	00 00       	nop
    16a8:	00 00       	nop
    16aa:	00 01       	movw	r0, r0
    16ac:	07 1f       	adc	r16, r23
    16ae:	1f 1c       	adc	r1, r15
	...
    16c8:	00 00       	nop
    16ca:	80 80       	ld	r8, Z
    16cc:	c0 c0       	rjmp	.+384    	; 0x184e <__stack+0xf4f>
    16ce:	c0 c0       	rjmp	.+384    	; 0x1850 <__stack+0xf51>
    16d0:	c0 c0       	rjmp	.+384    	; 0x1852 <__stack+0xf53>
    16d2:	c0 80       	ld	r12, Z
    16d4:	00 00       	nop
    16d6:	00 00       	nop
    16d8:	00 3e       	cpi	r16, 0xE0	; 224
    16da:	ff ff       	.word	0xffff	; ????
    16dc:	e3 c1       	rjmp	.+966    	; 0x1aa4 <__stack+0x11a5>
    16de:	81 81       	ldd	r24, Z+1	; 0x01
    16e0:	01 01       	movw	r0, r2
    16e2:	01 03       	mulsu	r16, r17
    16e4:	03 00       	.word	0x0003	; ????
    16e6:	00 00       	nop
    16e8:	00 00       	nop
    16ea:	00 00       	nop
    16ec:	01 01       	movw	r0, r2
    16ee:	03 03       	mulsu	r16, r19
    16f0:	07 07       	cpc	r16, r23
    16f2:	0f 1e       	adc	r0, r31
    16f4:	fc fc       	.word	0xfcfc	; ????
    16f6:	f0 00       	.word	0x00f0	; ????
    16f8:	00 00       	nop
    16fa:	07 0f       	add	r16, r23
    16fc:	0e 1e       	adc	r0, r30
    16fe:	1c 1c       	adc	r1, r12
    1700:	1c 1c       	adc	r1, r12
    1702:	1c 1e       	adc	r1, r28
    1704:	0f 07       	cpc	r16, r31
    1706:	07 01       	movw	r0, r14
	...
    1718:	00 00       	nop
    171a:	00 c0       	rjmp	.+0      	; 0x171c <__stack+0xe1d>
    171c:	c0 c0       	rjmp	.+384    	; 0x189e <__stack+0xf9f>
    171e:	c0 c0       	rjmp	.+384    	; 0x18a0 <__stack+0xfa1>
    1720:	c0 c0       	rjmp	.+384    	; 0x18a2 <__stack+0xfa3>
    1722:	c0 c0       	rjmp	.+384    	; 0x18a4 <__stack+0xfa5>
    1724:	c0 c0       	rjmp	.+384    	; 0x18a6 <__stack+0xfa7>
    1726:	c0 c0       	rjmp	.+384    	; 0x18a8 <__stack+0xfa9>
    1728:	c0 c0       	rjmp	.+384    	; 0x18aa <__stack+0xfab>
    172a:	c0 c0       	rjmp	.+384    	; 0x18ac <__stack+0xfad>
    172c:	00 01       	movw	r0, r0
    172e:	01 01       	movw	r0, r2
    1730:	01 01       	movw	r0, r2
    1732:	01 01       	movw	r0, r2
    1734:	ff ff       	.word	0xffff	; ????
    1736:	ff 01       	movw	r30, r30
    1738:	01 01       	movw	r0, r2
    173a:	01 01       	movw	r0, r2
    173c:	01 01       	movw	r0, r2
	...
    1746:	ff ff       	.word	0xffff	; ????
    1748:	ff 00       	.word	0x00ff	; ????
	...
    1756:	00 00       	nop
    1758:	1f 1f       	adc	r17, r31
    175a:	1f 00       	.word	0x001f	; ????
	...
    1778:	c0 c0       	rjmp	.+384    	; 0x18fa <__stack+0xffb>
    177a:	c0 00       	.word	0x00c0	; ????
	...
    1784:	00 00       	nop
    1786:	00 c0       	rjmp	.+0      	; 0x1788 <__stack+0xe89>
    1788:	c0 c0       	rjmp	.+384    	; 0x190a <__stack+0x100b>
    178a:	00 00       	nop
    178c:	00 00       	nop
    178e:	00 00       	nop
    1790:	ff ff       	.word	0xffff	; ????
    1792:	ff 00       	.word	0x00ff	; ????
	...
    179c:	00 00       	nop
    179e:	00 ff       	sbrs	r16, 0
    17a0:	ff ff       	.word	0xffff	; ????
    17a2:	00 00       	nop
    17a4:	00 00       	nop
    17a6:	00 00       	nop
    17a8:	ff ff       	.word	0xffff	; ????
    17aa:	ff 80       	ldd	r15, Y+7	; 0x07
	...
    17b4:	00 00       	nop
    17b6:	80 ff       	sbrs	r24, 0
    17b8:	ff ff       	.word	0xffff	; ????
    17ba:	00 00       	nop
    17bc:	00 00       	nop
    17be:	00 00       	nop
    17c0:	00 03       	mulsu	r16, r16
    17c2:	07 0f       	add	r16, r23
    17c4:	0f 1e       	adc	r0, r31
    17c6:	1c 1c       	adc	r1, r12
    17c8:	1c 1c       	adc	r1, r12
    17ca:	1c 1c       	adc	r1, r12
    17cc:	0e 0f       	add	r16, r30
    17ce:	0f 07       	cpc	r16, r31
    17d0:	03 00       	.word	0x0003	; ????
	...
    17ee:	c0 c0       	rjmp	.+384    	; 0x1970 <__stack+0x1071>
    17f0:	c0 80       	ld	r12, Z
	...
    17fe:	80 c0       	rjmp	.+256    	; 0x1900 <__stack+0x1001>
    1800:	c0 40       	sbci	r28, 0x00	; 0
    1802:	00 00       	nop
    1804:	07 3f       	cpi	r16, 0xF7	; 247
    1806:	ff fc       	.word	0xfcff	; ????
    1808:	e0 00       	.word	0x00e0	; ????
    180a:	00 00       	nop
    180c:	00 00       	nop
    180e:	00 00       	nop
    1810:	00 e0       	ldi	r16, 0x00	; 0
    1812:	fc ff       	.word	0xfffc	; ????
    1814:	1f 03       	fmul	r17, r23
    1816:	00 00       	nop
    1818:	00 00       	nop
    181a:	00 00       	nop
    181c:	07 3f       	cpi	r16, 0xF7	; 247
    181e:	ff f8       	.word	0xf8ff	; ????
    1820:	e0 00       	.word	0x00e0	; ????
    1822:	00 e0       	ldi	r16, 0x00	; 0
    1824:	fc ff       	.word	0xfffc	; ????
    1826:	1f 03       	fmul	r17, r23
	...
    1830:	00 00       	nop
    1832:	00 01       	movw	r0, r0
    1834:	0f 1f       	adc	r16, r31
    1836:	1f 1f       	adc	r17, r31
    1838:	1f 07       	cpc	r17, r31
	...
    1856:	00 c0       	rjmp	.+0      	; 0x1858 <__stack+0xf59>
    1858:	c0 c0       	rjmp	.+384    	; 0x19da <__stack+0x10db>
    185a:	80 00       	.word	0x0080	; ????
	...
    1864:	80 c0       	rjmp	.+256    	; 0x1966 <__stack+0x1067>
    1866:	c0 c0       	rjmp	.+384    	; 0x19e8 <__stack+0x10e9>
	...
    1870:	00 00       	nop
    1872:	80 c0       	rjmp	.+256    	; 0x1974 <__stack+0x1075>
    1874:	c0 c0       	rjmp	.+384    	; 0x19f6 <__stack+0x10f7>
    1876:	00 00       	nop
    1878:	00 0f       	add	r16, r16
    187a:	7f ff       	.word	0xff7f	; ????
    187c:	f8 c0       	rjmp	.+496    	; 0x1a6e <__stack+0x116f>
    187e:	00 00       	nop
    1880:	00 00       	nop
    1882:	00 80       	ld	r0, Z
    1884:	f8 ff       	.word	0xfff8	; ????
    1886:	3f 0f       	add	r19, r31
    1888:	7f ff       	.word	0xff7f	; ????
    188a:	f0 80       	ld	r15, Z
    188c:	00 00       	nop
    188e:	00 00       	nop
    1890:	00 80       	ld	r0, Z
    1892:	f8 ff       	.word	0xfff8	; ????
    1894:	7f 07       	cpc	r23, r31
    1896:	00 00       	nop
    1898:	00 00       	nop
    189a:	00 00       	nop
    189c:	03 3f       	cpi	r16, 0xF3	; 243
    189e:	ff fc       	.word	0xfcff	; ????
    18a0:	c0 00       	.word	0x00c0	; ????
    18a2:	80 f8       	bld	r8, 0
    18a4:	ff 1f       	adc	r31, r31
    18a6:	03 00       	.word	0x0003	; ????
    18a8:	00 00       	nop
    18aa:	07 3f       	cpi	r16, 0xF7	; 247
    18ac:	ff f8       	.word	0xf8ff	; ????
    18ae:	c0 00       	.word	0x00c0	; ????
    18b0:	c0 fc       	sbrc	r12, 0
    18b2:	ff 1f       	adc	r31, r31
    18b4:	03 00       	.word	0x0003	; ????
	...
    18be:	00 01       	movw	r0, r0
    18c0:	0f 1f       	adc	r16, r31
    18c2:	1e 1f       	adc	r17, r30
    18c4:	1f 01       	movw	r2, r30
    18c6:	00 00       	nop
    18c8:	00 00       	nop
    18ca:	00 00       	nop
    18cc:	00 03       	mulsu	r16, r16
    18ce:	1f 1f       	adc	r17, r31
    18d0:	1c 1f       	adc	r17, r28
    18d2:	0f 01       	movw	r0, r30
	...
    18fc:	40 c0       	rjmp	.+128    	; 0x197e <__stack+0x107f>
    18fe:	c0 c0       	rjmp	.+384    	; 0x1a80 <__stack+0x1181>
	...
    1908:	00 80       	ld	r0, Z
    190a:	c0 c0       	rjmp	.+384    	; 0x1a8c <__stack+0x118d>
    190c:	c0 00       	.word	0x00c0	; ????
    190e:	00 00       	nop
    1910:	01 07       	cpc	r16, r17
    1912:	0f 3f       	cpi	r16, 0xFF	; 255
    1914:	fc f8       	.word	0xf8fc	; ????
    1916:	e0 80       	ld	r14, Z
    1918:	c0 f0       	brcs	.+48     	; 0x194a <__stack+0x104b>
    191a:	fc 3e       	cpi	r31, 0xEC	; 236
    191c:	1f 07       	cpc	r17, r31
    191e:	01 00       	.word	0x0001	; ????
    1920:	00 00       	nop
    1922:	00 00       	nop
    1924:	00 c0       	rjmp	.+0      	; 0x1926 <__stack+0x1027>
    1926:	e0 f8       	bld	r14, 0
    1928:	7f 1f       	adc	r23, r31
    192a:	07 1f       	adc	r16, r23
    192c:	7f f8       	.word	0xf87f	; ????
    192e:	f0 c0       	rjmp	.+480    	; 0x1b10 <__stack+0x1211>
    1930:	00 00       	nop
    1932:	00 00       	nop
    1934:	00 18       	sub	r0, r0
    1936:	1c 1f       	adc	r17, r28
    1938:	0f 03       	fmul	r16, r23
    193a:	01 00       	.word	0x0001	; ????
    193c:	00 00       	nop
    193e:	00 00       	nop
    1940:	01 03       	mulsu	r16, r17
    1942:	0f 1f       	adc	r16, r31
    1944:	1e 18       	sub	r1, r14
	...
    195a:	40 c0       	rjmp	.+128    	; 0x19dc <__stack+0x10dd>
    195c:	c0 c0       	rjmp	.+384    	; 0x1ade <__stack+0x11df>
	...
    1966:	00 80       	ld	r0, Z
    1968:	c0 c0       	rjmp	.+384    	; 0x1aea <__stack+0x11eb>
    196a:	40 00       	.word	0x0040	; ????
    196c:	00 01       	movw	r0, r0
    196e:	07 1f       	adc	r16, r23
    1970:	7f fc       	.word	0xfc7f	; ????
    1972:	e0 80       	ld	r14, Z
    1974:	00 80       	ld	r0, Z
    1976:	e0 f8       	bld	r14, 0
    1978:	7e 1f       	adc	r23, r30
    197a:	07 01       	movw	r0, r14
    197c:	00 00       	nop
    197e:	00 00       	nop
    1980:	00 00       	nop
    1982:	00 01       	movw	r0, r0
    1984:	07 ff       	sbrs	r16, 7
    1986:	fe ff       	.word	0xfffe	; ????
    1988:	07 01       	movw	r0, r14
	...
    1996:	00 1f       	adc	r16, r16
    1998:	1f 1f       	adc	r17, r31
	...
    19b2:	00 00       	nop
    19b4:	00 c0       	rjmp	.+0      	; 0x19b6 <__stack+0x10b7>
    19b6:	c0 c0       	rjmp	.+384    	; 0x1b38 <__stack+0x1239>
    19b8:	c0 c0       	rjmp	.+384    	; 0x1b3a <__stack+0x123b>
    19ba:	c0 c0       	rjmp	.+384    	; 0x1b3c <__stack+0x123d>
    19bc:	c0 c0       	rjmp	.+384    	; 0x1b3e <__stack+0x123f>
    19be:	c0 c0       	rjmp	.+384    	; 0x1b40 <__stack+0x1241>
    19c0:	c0 c0       	rjmp	.+384    	; 0x1b42 <__stack+0x1243>
    19c2:	c0 c0       	rjmp	.+384    	; 0x1b44 <__stack+0x1245>
    19c4:	00 00       	nop
    19c6:	01 01       	movw	r0, r2
    19c8:	01 01       	movw	r0, r2
    19ca:	01 01       	movw	r0, r2
    19cc:	01 81       	ldd	r16, Z+1	; 0x01
    19ce:	c1 f1       	breq	.+112    	; 0x1a40 <__stack+0x1141>
    19d0:	f9 3f       	cpi	r31, 0xF9	; 249
    19d2:	1f 07       	cpc	r17, r31
    19d4:	03 00       	.word	0x0003	; ????
    19d6:	00 00       	nop
    19d8:	00 c0       	rjmp	.+0      	; 0x19da <__stack+0x10db>
    19da:	e0 f8       	bld	r14, 0
    19dc:	7c 3e       	cpi	r23, 0xEC	; 236
    19de:	0f 07       	cpc	r16, r31
    19e0:	01 00       	.word	0x0001	; ????
    19e2:	00 00       	nop
    19e4:	00 00       	nop
    19e6:	00 00       	nop
    19e8:	1e 1f       	adc	r17, r30
    19ea:	1f 1f       	adc	r17, r31
    19ec:	1d 1c       	adc	r1, r13
    19ee:	1c 1c       	adc	r1, r12
    19f0:	1c 1c       	adc	r1, r12
    19f2:	1c 1c       	adc	r1, r12
    19f4:	1c 1c       	adc	r1, r12
    19f6:	1c 08       	sbc	r1, r12
	...
    1a0c:	e0 f0       	brcs	.+56     	; 0x1a46 <__stack+0x1147>
    1a0e:	f0 70       	andi	r31, 0x00	; 0
    1a10:	70 70       	andi	r23, 0x00	; 0
    1a12:	70 00       	.word	0x0070	; ????
    1a14:	00 00       	nop
    1a16:	00 ff       	sbrs	r16, 0
    1a18:	ff ff       	.word	0xffff	; ????
	...
    1a22:	ff ff       	.word	0xffff	; ????
    1a24:	ff 00       	.word	0x00ff	; ????
    1a26:	00 00       	nop
    1a28:	00 00       	nop
    1a2a:	00 00       	nop
    1a2c:	00 ff       	sbrs	r16, 0
    1a2e:	ff ff       	.word	0xffff	; ????
	...
    1a38:	03 03       	mulsu	r16, r19
    1a3a:	03 03       	mulsu	r16, r19
    1a3c:	03 03       	mulsu	r16, r19
    1a3e:	03 00       	.word	0x0003	; ????
    1a40:	08 78       	andi	r16, 0x88	; 136
    1a42:	f8 f0       	brcs	.+62     	; 0x1a82 <__stack+0x1183>
    1a44:	80 00       	.word	0x0080	; ????
	...
    1a4e:	00 00       	nop
    1a50:	03 0f       	add	r16, r19
    1a52:	7f fc       	.word	0xfc7f	; ????
    1a54:	f0 80       	ld	r15, Z
	...
    1a5e:	00 00       	nop
    1a60:	00 03       	mulsu	r16, r16
    1a62:	1f 7f       	andi	r17, 0xFF	; 255
    1a64:	fc e0       	ldi	r31, 0x0C	; 12
    1a66:	80 00       	.word	0x0080	; ????
	...
    1a70:	00 00       	nop
    1a72:	03 1f       	adc	r16, r19
    1a74:	7f fc       	.word	0xfc7f	; ????
    1a76:	e0 80       	ld	r14, Z
	...
    1a80:	00 00       	nop
    1a82:	00 03       	mulsu	r16, r16
    1a84:	03 03       	mulsu	r16, r19
    1a86:	00 00       	nop
    1a88:	70 70       	andi	r23, 0x00	; 0
    1a8a:	70 f0       	brcs	.+28     	; 0x1aa8 <__stack+0x11a9>
    1a8c:	f0 f0       	brcs	.+60     	; 0x1aca <__stack+0x11cb>
	...
    1a96:	ff ff       	.word	0xffff	; ????
    1a98:	ff 00       	.word	0x00ff	; ????
    1a9a:	00 00       	nop
    1a9c:	00 00       	nop
    1a9e:	00 00       	nop
    1aa0:	00 ff       	sbrs	r16, 0
    1aa2:	ff ff       	.word	0xffff	; ????
	...
    1aac:	ff ff       	.word	0xffff	; ????
    1aae:	ff 00       	.word	0x00ff	; ????
    1ab0:	00 00       	nop
    1ab2:	00 00       	nop
    1ab4:	03 03       	mulsu	r16, r19
    1ab6:	03 03       	mulsu	r16, r19
    1ab8:	03 03       	mulsu	r16, r19
	...
    1ac2:	00 00       	nop
    1ac4:	c0 c0       	rjmp	.+384    	; 0x1c46 <__stack+0x1347>
    1ac6:	c0 c0       	rjmp	.+384    	; 0x1c48 <__stack+0x1349>
	...
    1ad0:	00 00       	nop
    1ad2:	80 e0       	ldi	r24, 0x00	; 0
    1ad4:	fc 7f       	andi	r31, 0xFC	; 252
    1ad6:	0f 03       	fmul	r16, r23
    1ad8:	03 0f       	add	r16, r19
    1ada:	3f fc       	.word	0xfc3f	; ????
    1adc:	f0 c0       	rjmp	.+480    	; 0x1cbe <__stack+0x13bf>
    1ade:	00 00       	nop
    1ae0:	00 00       	nop
    1ae2:	00 06       	cpc	r0, r16
    1ae4:	07 07       	cpc	r16, r23
    1ae6:	01 00       	.word	0x0001	; ????
    1ae8:	00 00       	nop
    1aea:	00 00       	nop
    1aec:	00 01       	movw	r0, r0
    1aee:	07 07       	cpc	r16, r23
    1af0:	07 00       	.word	0x0007	; ????
	...
    1b62:	00 03       	mulsu	r16, r16
    1b64:	03 03       	mulsu	r16, r19
    1b66:	03 03       	mulsu	r16, r19
    1b68:	03 03       	mulsu	r16, r19
    1b6a:	03 03       	mulsu	r16, r19
    1b6c:	03 03       	mulsu	r16, r19
    1b6e:	03 03       	mulsu	r16, r19
    1b70:	03 03       	mulsu	r16, r19
    1b72:	03 03       	mulsu	r16, r19
    1b74:	03 03       	mulsu	r16, r19
    1b76:	00 00       	nop
    1b78:	00 18       	sub	r0, r0
    1b7a:	38 78       	andi	r19, 0x88	; 136
    1b7c:	f0 c0       	rjmp	.+480    	; 0x1d5e <__stack+0x145f>
    1b7e:	80 00       	.word	0x0080	; ????
	...
    1b88:	01 01       	movw	r0, r2
	...
    1bc2:	e0 e0       	ldi	r30, 0x00	; 0
    1bc4:	70 70       	andi	r23, 0x00	; 0
    1bc6:	70 70       	andi	r23, 0x00	; 0
    1bc8:	70 70       	andi	r23, 0x00	; 0
    1bca:	f0 e0       	ldi	r31, 0x00	; 0
    1bcc:	e0 80       	ld	r14, Z
    1bce:	00 00       	nop
    1bd0:	00 00       	nop
    1bd2:	00 c0       	rjmp	.+0      	; 0x1bd4 <__stack+0x12d5>
    1bd4:	e0 f0       	brcs	.+56     	; 0x1c0e <__stack+0x130f>
    1bd6:	70 38       	cpi	r23, 0x80	; 128
    1bd8:	38 38       	cpi	r19, 0x88	; 136
    1bda:	38 38       	cpi	r19, 0x88	; 136
    1bdc:	38 ff       	.word	0xff38	; ????
    1bde:	ff ff       	.word	0xffff	; ????
    1be0:	00 00       	nop
    1be2:	00 00       	nop
    1be4:	00 03       	mulsu	r16, r16
    1be6:	0f 0f       	add	r16, r31
    1be8:	1e 1c       	adc	r1, r14
    1bea:	1c 1c       	adc	r1, r12
    1bec:	1c 0e       	add	r1, r28
    1bee:	0e 1f       	adc	r16, r30
    1bf0:	1f 1f       	adc	r17, r31
	...
    1c0a:	f0 f0       	brcs	.+60     	; 0x1c48 <__stack+0x1349>
    1c0c:	f0 00       	.word	0x00f0	; ????
	...
    1c1a:	00 00       	nop
    1c1c:	00 ff       	sbrs	r16, 0
    1c1e:	ff ff       	.word	0xffff	; ????
    1c20:	c0 e0       	ldi	r28, 0x00	; 0
    1c22:	e0 70       	andi	r30, 0x00	; 0
    1c24:	70 70       	andi	r23, 0x00	; 0
    1c26:	70 f0       	brcs	.+28     	; 0x1c44 <__stack+0x1345>
    1c28:	e0 e0       	ldi	r30, 0x00	; 0
    1c2a:	c0 00       	.word	0x00c0	; ????
    1c2c:	00 00       	nop
    1c2e:	00 00       	nop
    1c30:	ff ff       	.word	0xffff	; ????
    1c32:	ff 01       	movw	r30, r30
    1c34:	00 00       	nop
    1c36:	00 00       	nop
    1c38:	00 00       	nop
    1c3a:	00 81       	ld	r16, Z
    1c3c:	ff ff       	.word	0xffff	; ????
    1c3e:	fe 00       	.word	0x00fe	; ????
    1c40:	00 00       	nop
    1c42:	00 1f       	adc	r16, r16
    1c44:	1f 1f       	adc	r17, r31
    1c46:	07 0e       	add	r0, r23
    1c48:	0e 1c       	adc	r0, r14
    1c4a:	1c 1c       	adc	r1, r12
    1c4c:	1c 1e       	adc	r1, r28
    1c4e:	0f 07       	cpc	r16, r31
    1c50:	03 00       	.word	0x0003	; ????
	...
    1c76:	00 00       	nop
    1c78:	00 80       	ld	r0, Z
    1c7a:	c0 e0       	ldi	r28, 0x00	; 0
    1c7c:	e0 70       	andi	r30, 0x00	; 0
    1c7e:	70 70       	andi	r23, 0x00	; 0
    1c80:	70 70       	andi	r23, 0x00	; 0
    1c82:	f0 e0       	ldi	r31, 0x00	; 0
    1c84:	c0 00       	.word	0x00c0	; ????
    1c86:	00 00       	nop
    1c88:	fe ff       	.word	0xfffe	; ????
    1c8a:	ff 83       	std	Y+7, r31	; 0x07
    1c8c:	00 00       	nop
    1c8e:	00 00       	nop
    1c90:	00 00       	nop
    1c92:	00 01       	movw	r0, r0
    1c94:	01 00       	.word	0x0001	; ????
    1c96:	00 00       	nop
    1c98:	00 03       	mulsu	r16, r16
    1c9a:	07 0f       	add	r16, r23
    1c9c:	1e 1c       	adc	r1, r14
    1c9e:	1c 1c       	adc	r1, r12
    1ca0:	1c 1c       	adc	r1, r12
    1ca2:	0e 0e       	add	r0, r30
    1ca4:	07 00       	.word	0x0007	; ????
	...
    1cc2:	00 00       	nop
    1cc4:	f0 f0       	brcs	.+60     	; 0x1d02 <__stack+0x1403>
    1cc6:	f0 00       	.word	0x00f0	; ????
    1cc8:	00 00       	nop
    1cca:	00 00       	nop
    1ccc:	80 c0       	rjmp	.+256    	; 0x1dce <__stack+0x14cf>
    1cce:	e0 f0       	brcs	.+56     	; 0x1d08 <__stack+0x1409>
    1cd0:	70 70       	andi	r23, 0x00	; 0
    1cd2:	70 70       	andi	r23, 0x00	; 0
    1cd4:	e0 e0       	ldi	r30, 0x00	; 0
    1cd6:	c0 ff       	sbrs	r28, 0
    1cd8:	ff ff       	.word	0xffff	; ????
    1cda:	00 00       	nop
    1cdc:	00 00       	nop
    1cde:	fe ff       	.word	0xfffe	; ????
    1ce0:	ff 03       	fmulsu	r23, r23
    1ce2:	00 00       	nop
    1ce4:	00 00       	nop
    1ce6:	00 00       	nop
    1ce8:	00 01       	movw	r0, r0
    1cea:	ff ff       	.word	0xffff	; ????
    1cec:	ff 00       	.word	0x00ff	; ????
    1cee:	00 00       	nop
    1cf0:	00 00       	nop
    1cf2:	07 0f       	add	r16, r23
    1cf4:	0f 1e       	adc	r0, r31
    1cf6:	1c 1c       	adc	r1, r12
    1cf8:	1c 1c       	adc	r1, r12
    1cfa:	0e 0e       	add	r0, r30
    1cfc:	07 1f       	adc	r16, r23
    1cfe:	1f 1f       	adc	r17, r31
	...
    1d28:	00 00       	nop
    1d2a:	80 c0       	rjmp	.+256    	; 0x1e2c <__stack+0x152d>
    1d2c:	e0 e0       	ldi	r30, 0x00	; 0
    1d2e:	70 70       	andi	r23, 0x00	; 0
    1d30:	70 70       	andi	r23, 0x00	; 0
    1d32:	70 f0       	brcs	.+28     	; 0x1d50 <__stack+0x1451>
    1d34:	e0 c0       	rjmp	.+448    	; 0x1ef6 <__stack+0x15f7>
    1d36:	80 00       	.word	0x0080	; ????
    1d38:	00 00       	nop
    1d3a:	00 fe       	sbrs	r0, 0
    1d3c:	ff ff       	.word	0xffff	; ????
    1d3e:	39 38       	cpi	r19, 0x89	; 137
    1d40:	38 38       	cpi	r19, 0x88	; 136
    1d42:	38 38       	cpi	r19, 0x88	; 136
    1d44:	38 38       	cpi	r19, 0x88	; 136
    1d46:	39 3f       	cpi	r19, 0xF9	; 249
    1d48:	3f 3e       	cpi	r19, 0xEF	; 239
    1d4a:	00 00       	nop
    1d4c:	00 00       	nop
    1d4e:	03 07       	cpc	r16, r19
    1d50:	0f 0e       	add	r0, r31
    1d52:	1c 1c       	adc	r1, r12
    1d54:	1c 1c       	adc	r1, r12
    1d56:	1c 1c       	adc	r1, r12
    1d58:	1c 0e       	add	r1, r28
    1d5a:	0e 00       	.word	0x000e	; ????
	...
    1d70:	00 00       	nop
    1d72:	80 e0       	ldi	r24, 0x00	; 0
    1d74:	e0 f0       	brcs	.+56     	; 0x1dae <__stack+0x14af>
    1d76:	70 70       	andi	r23, 0x00	; 0
    1d78:	70 e0       	ldi	r23, 0x00	; 0
    1d7a:	70 70       	andi	r23, 0x00	; 0
    1d7c:	70 ff       	sbrs	r23, 0
    1d7e:	ff ff       	.word	0xffff	; ????
    1d80:	70 70       	andi	r23, 0x00	; 0
    1d82:	70 70       	andi	r23, 0x00	; 0
    1d84:	00 00       	nop
    1d86:	00 00       	nop
    1d88:	ff ff       	.word	0xffff	; ????
    1d8a:	ff 00       	.word	0x00ff	; ????
    1d8c:	00 00       	nop
    1d8e:	00 00       	nop
    1d90:	00 00       	nop
    1d92:	00 1f       	adc	r16, r16
    1d94:	1f 1f       	adc	r17, r31
	...
    1db6:	00 00       	nop
    1db8:	00 80       	ld	r0, Z
    1dba:	c0 e0       	ldi	r28, 0x00	; 0
    1dbc:	f0 70       	andi	r31, 0x00	; 0
    1dbe:	70 70       	andi	r23, 0x00	; 0
    1dc0:	70 f0       	brcs	.+28     	; 0x1dde <__stack+0x14df>
    1dc2:	f0 f0       	brcs	.+60     	; 0x1e00 <__stack+0x1501>
    1dc4:	70 70       	andi	r23, 0x00	; 0
    1dc6:	70 00       	.word	0x0070	; ????
    1dc8:	00 00       	nop
    1dca:	9f ff       	.word	0xff9f	; ????
    1dcc:	ff 70       	andi	r31, 0x0F	; 15
    1dce:	e0 e0       	ldi	r30, 0x00	; 0
    1dd0:	e0 e0       	ldi	r30, 0x00	; 0
    1dd2:	f0 7f       	andi	r31, 0xF0	; 240
    1dd4:	3f 1f       	adc	r19, r31
    1dd6:	00 00       	nop
    1dd8:	00 00       	nop
    1dda:	e0 f3       	brcs	.-8      	; 0x1dd4 <__stack+0x14d5>
    1ddc:	ff bf       	out	0x3f, r31	; 63
    1dde:	1c 1c       	adc	r1, r12
    1de0:	1c 1c       	adc	r1, r12
    1de2:	1c 1c       	adc	r1, r12
    1de4:	1c bc       	out	0x2c, r1	; 44
    1de6:	f8 f8       	.word	0xf8f8	; ????
    1de8:	f0 00       	.word	0x00f0	; ????
    1dea:	00 01       	movw	r0, r0
    1dec:	03 03       	mulsu	r16, r19
    1dee:	03 03       	mulsu	r16, r19
    1df0:	03 03       	mulsu	r16, r19
    1df2:	03 03       	mulsu	r16, r19
    1df4:	03 03       	mulsu	r16, r19
    1df6:	03 03       	mulsu	r16, r19
    1df8:	01 00       	.word	0x0001	; ????
    1dfa:	00 00       	nop
    1dfc:	00 00       	nop
    1dfe:	f0 f0       	brcs	.+60     	; 0x1e3c <__stack+0x153d>
    1e00:	f0 00       	.word	0x00f0	; ????
	...
    1e0e:	00 00       	nop
    1e10:	00 ff       	sbrs	r16, 0
    1e12:	ff ff       	.word	0xffff	; ????
    1e14:	c0 e0       	ldi	r28, 0x00	; 0
    1e16:	e0 70       	andi	r30, 0x00	; 0
    1e18:	70 70       	andi	r23, 0x00	; 0
    1e1a:	f0 f0       	brcs	.+60     	; 0x1e58 <__stack+0x1559>
    1e1c:	e0 c0       	rjmp	.+448    	; 0x1fde <__stack+0x16df>
    1e1e:	80 00       	.word	0x0080	; ????
    1e20:	00 00       	nop
    1e22:	00 00       	nop
    1e24:	ff ff       	.word	0xffff	; ????
    1e26:	ff 01       	movw	r30, r30
    1e28:	00 00       	nop
    1e2a:	00 00       	nop
    1e2c:	00 00       	nop
    1e2e:	01 ff       	sbrs	r16, 1
    1e30:	ff ff       	.word	0xffff	; ????
    1e32:	00 00       	nop
    1e34:	00 00       	nop
    1e36:	00 1f       	adc	r16, r16
    1e38:	1f 1f       	adc	r17, r31
	...
    1e42:	1f 1f       	adc	r17, r31
    1e44:	1f 00       	.word	0x001f	; ????
	...
    1e5a:	00 00       	nop
    1e5c:	00 c0       	rjmp	.+0      	; 0x1e5e <__stack+0x155f>
    1e5e:	c0 c0       	rjmp	.+384    	; 0x1fe0 <__stack+0x16e1>
    1e60:	c0 00       	.word	0x00c0	; ????
    1e62:	00 00       	nop
    1e64:	00 f1       	brcs	.+64     	; 0x1ea6 <__stack+0x15a7>
    1e66:	f1 f1       	breq	.+124    	; 0x1ee4 <__stack+0x15e5>
    1e68:	01 00       	.word	0x0001	; ????
    1e6a:	00 00       	nop
    1e6c:	00 ff       	sbrs	r16, 0
    1e6e:	ff ff       	.word	0xffff	; ????
    1e70:	00 00       	nop
    1e72:	00 00       	nop
    1e74:	00 1f       	adc	r16, r16
    1e76:	1f 1f       	adc	r17, r31
	...
    1e84:	00 00       	nop
    1e86:	c0 c0       	rjmp	.+384    	; 0x2008 <__stack+0x1709>
    1e88:	c0 c0       	rjmp	.+384    	; 0x200a <__stack+0x170b>
    1e8a:	00 00       	nop
    1e8c:	00 00       	nop
    1e8e:	00 f1       	brcs	.+64     	; 0x1ed0 <__stack+0x15d1>
    1e90:	f1 f1       	breq	.+124    	; 0x1f0e <__stack+0x160f>
    1e92:	01 00       	.word	0x0001	; ????
    1e94:	00 00       	nop
    1e96:	00 00       	nop
    1e98:	ff ff       	.word	0xffff	; ????
    1e9a:	ff 00       	.word	0x00ff	; ????
    1e9c:	00 00       	nop
    1e9e:	00 00       	nop
    1ea0:	80 ff       	sbrs	r24, 0
    1ea2:	ff ff       	.word	0xffff	; ????
    1ea4:	00 00       	nop
    1ea6:	03 03       	mulsu	r16, r19
    1ea8:	03 03       	mulsu	r16, r19
    1eaa:	03 03       	mulsu	r16, r19
    1eac:	01 00       	.word	0x0001	; ????
    1eae:	00 00       	nop
    1eb0:	00 00       	nop
    1eb2:	f0 f0       	brcs	.+60     	; 0x1ef0 <__stack+0x15f1>
    1eb4:	f0 00       	.word	0x00f0	; ????
	...
    1ec2:	00 ff       	sbrs	r16, 0
    1ec4:	ff ff       	.word	0xffff	; ????
    1ec6:	00 00       	nop
    1ec8:	00 80       	ld	r0, Z
    1eca:	c0 e0       	ldi	r28, 0x00	; 0
    1ecc:	f0 70       	andi	r31, 0x00	; 0
    1ece:	10 00       	.word	0x0010	; ????
    1ed0:	00 00       	nop
    1ed2:	00 00       	nop
    1ed4:	ff ff       	.word	0xffff	; ????
    1ed6:	ff 08       	sbc	r15, r15
    1ed8:	3e 7f       	andi	r19, 0xFE	; 254
    1eda:	f7 e3       	ldi	r31, 0x37	; 55
    1edc:	c1 00       	.word	0x00c1	; ????
    1ede:	00 00       	nop
    1ee0:	00 00       	nop
    1ee2:	00 00       	nop
    1ee4:	00 1f       	adc	r16, r16
    1ee6:	1f 1f       	adc	r17, r31
    1ee8:	00 00       	nop
    1eea:	00 00       	nop
    1eec:	03 07       	cpc	r16, r19
    1eee:	0f 1e       	adc	r0, r31
    1ef0:	1c 10       	cpse	r1, r12
	...
    1f06:	00 f0       	brcs	.+0      	; 0x1f08 <__stack+0x1609>
    1f08:	f0 f0       	brcs	.+60     	; 0x1f46 <__stack+0x1647>
    1f0a:	00 00       	nop
    1f0c:	00 00       	nop
    1f0e:	00 ff       	sbrs	r16, 0
    1f10:	ff ff       	.word	0xffff	; ????
    1f12:	00 00       	nop
    1f14:	00 00       	nop
    1f16:	00 ff       	sbrs	r16, 0
    1f18:	ff ff       	.word	0xffff	; ????
    1f1a:	00 00       	nop
    1f1c:	00 00       	nop
    1f1e:	00 1f       	adc	r16, r16
    1f20:	1f 1f       	adc	r17, r31
	...
    1f4a:	00 00       	nop
    1f4c:	00 f0       	brcs	.+0      	; 0x1f4e <__stack+0x164f>
    1f4e:	f0 f0       	brcs	.+60     	; 0x1f8c <__stack+0x168d>
    1f50:	c0 e0       	ldi	r28, 0x00	; 0
    1f52:	e0 70       	andi	r30, 0x00	; 0
    1f54:	70 70       	andi	r23, 0x00	; 0
    1f56:	f0 f0       	brcs	.+60     	; 0x1f94 <__stack+0x1695>
    1f58:	e0 c0       	rjmp	.+448    	; 0x211a <__stack+0x181b>
    1f5a:	80 c0       	rjmp	.+256    	; 0x205c <__stack+0x175d>
    1f5c:	e0 60       	ori	r30, 0x00	; 0
    1f5e:	70 70       	andi	r23, 0x00	; 0
    1f60:	70 f0       	brcs	.+28     	; 0x1f7e <__stack+0x167f>
    1f62:	e0 c0       	rjmp	.+448    	; 0x2124 <__stack+0x1825>
    1f64:	80 00       	.word	0x0080	; ????
    1f66:	00 00       	nop
    1f68:	00 00       	nop
    1f6a:	00 ff       	sbrs	r16, 0
    1f6c:	ff ff       	.word	0xffff	; ????
    1f6e:	01 00       	.word	0x0001	; ????
    1f70:	00 00       	nop
    1f72:	00 00       	nop
    1f74:	00 01       	movw	r0, r0
    1f76:	ff ff       	.word	0xffff	; ????
    1f78:	ff 01       	movw	r30, r30
    1f7a:	00 00       	nop
    1f7c:	00 00       	nop
    1f7e:	00 01       	movw	r0, r0
    1f80:	ff ff       	.word	0xffff	; ????
    1f82:	ff 00       	.word	0x00ff	; ????
    1f84:	00 00       	nop
    1f86:	00 00       	nop
    1f88:	00 1f       	adc	r16, r16
    1f8a:	1f 1f       	adc	r17, r31
	...
    1f94:	1f 1f       	adc	r17, r31
    1f96:	1f 00       	.word	0x001f	; ????
    1f98:	00 00       	nop
    1f9a:	00 00       	nop
    1f9c:	00 00       	nop
    1f9e:	1f 1f       	adc	r17, r31
    1fa0:	1f 00       	.word	0x001f	; ????
	...
    1fd6:	00 00       	nop
    1fd8:	f0 f0       	brcs	.+60     	; 0x2016 <__stack+0x1717>
    1fda:	f0 c0       	rjmp	.+480    	; 0x21bc <__stack+0x18bd>
    1fdc:	e0 e0       	ldi	r30, 0x00	; 0
    1fde:	70 70       	andi	r23, 0x00	; 0
    1fe0:	70 f0       	brcs	.+28     	; 0x1ffe <__stack+0x16ff>
    1fe2:	f0 e0       	ldi	r31, 0x00	; 0
    1fe4:	c0 80       	ld	r12, Z
    1fe6:	00 00       	nop
    1fe8:	00 00       	nop
    1fea:	00 ff       	sbrs	r16, 0
    1fec:	ff ff       	.word	0xffff	; ????
    1fee:	01 00       	.word	0x0001	; ????
    1ff0:	00 00       	nop
    1ff2:	00 00       	nop
    1ff4:	00 01       	movw	r0, r0
    1ff6:	ff ff       	.word	0xffff	; ????
    1ff8:	ff 00       	.word	0x00ff	; ????
    1ffa:	00 00       	nop
    1ffc:	00 00       	nop
    1ffe:	1f 1f       	adc	r17, r31
    2000:	1f 00       	.word	0x001f	; ????
    2002:	00 00       	nop
    2004:	00 00       	nop
    2006:	00 00       	nop
    2008:	00 1f       	adc	r16, r16
    200a:	1f 1f       	adc	r17, r31
	...
    2038:	80 c0       	rjmp	.+256    	; 0x213a <__stack+0x183b>
    203a:	e0 e0       	ldi	r30, 0x00	; 0
    203c:	f0 70       	andi	r31, 0x00	; 0
    203e:	70 70       	andi	r23, 0x00	; 0
    2040:	70 70       	andi	r23, 0x00	; 0
    2042:	e0 e0       	ldi	r30, 0x00	; 0
    2044:	c0 80       	ld	r12, Z
    2046:	00 00       	nop
    2048:	00 00       	nop
    204a:	00 fe       	sbrs	r0, 0
    204c:	ff ff       	.word	0xffff	; ????
    204e:	83 00       	.word	0x0083	; ????
    2050:	00 00       	nop
    2052:	00 00       	nop
    2054:	00 00       	nop
    2056:	00 83       	st	Z, r16
    2058:	ff ff       	.word	0xffff	; ????
    205a:	fe 00       	.word	0x00fe	; ????
    205c:	00 00       	nop
    205e:	00 00       	nop
    2060:	03 07       	cpc	r16, r19
    2062:	0f 0e       	add	r0, r31
    2064:	1c 1c       	adc	r1, r12
    2066:	1c 1c       	adc	r1, r12
    2068:	1c 1e       	adc	r1, r28
    206a:	0e 0f       	add	r16, r30
    206c:	07 03       	mulsu	r16, r23
	...
    209a:	00 f0       	brcs	.+0      	; 0x209c <__stack+0x179d>
    209c:	f0 f0       	brcs	.+60     	; 0x20da <__stack+0x17db>
    209e:	c0 e0       	ldi	r28, 0x00	; 0
    20a0:	e0 70       	andi	r30, 0x00	; 0
    20a2:	70 70       	andi	r23, 0x00	; 0
    20a4:	70 f0       	brcs	.+28     	; 0x20c2 <__stack+0x17c3>
    20a6:	e0 e0       	ldi	r30, 0x00	; 0
    20a8:	c0 00       	.word	0x00c0	; ????
    20aa:	00 00       	nop
    20ac:	00 00       	nop
    20ae:	ff ff       	.word	0xffff	; ????
    20b0:	ff 01       	movw	r30, r30
    20b2:	00 00       	nop
    20b4:	00 00       	nop
    20b6:	00 00       	nop
    20b8:	00 81       	ld	r16, Z
    20ba:	ff ff       	.word	0xffff	; ????
    20bc:	fe 00       	.word	0x00fe	; ????
    20be:	00 00       	nop
    20c0:	00 ff       	sbrs	r16, 0
    20c2:	ff ff       	.word	0xffff	; ????
    20c4:	07 0e       	add	r0, r23
    20c6:	0e 1c       	adc	r0, r14
    20c8:	1c 1c       	adc	r1, r12
    20ca:	1c 1e       	adc	r1, r28
    20cc:	0f 07       	cpc	r16, r31
    20ce:	03 00       	.word	0x0003	; ????
    20d0:	00 00       	nop
    20d2:	00 00       	nop
    20d4:	03 03       	mulsu	r16, r19
    20d6:	03 00       	.word	0x0003	; ????
	...
    20f8:	00 00       	nop
    20fa:	80 c0       	rjmp	.+256    	; 0x21fc <__stack+0x18fd>
    20fc:	e0 f0       	brcs	.+56     	; 0x2136 <__stack+0x1837>
    20fe:	70 70       	andi	r23, 0x00	; 0
    2100:	70 70       	andi	r23, 0x00	; 0
    2102:	e0 e0       	ldi	r30, 0x00	; 0
    2104:	c0 f0       	brcs	.+48     	; 0x2136 <__stack+0x1837>
    2106:	f0 f0       	brcs	.+60     	; 0x2144 <__stack+0x1845>
    2108:	00 00       	nop
    210a:	00 00       	nop
    210c:	fe ff       	.word	0xfffe	; ????
    210e:	ff 03       	fmulsu	r23, r23
    2110:	00 00       	nop
    2112:	00 00       	nop
    2114:	00 00       	nop
    2116:	00 01       	movw	r0, r0
    2118:	ff ff       	.word	0xffff	; ????
    211a:	ff 00       	.word	0x00ff	; ????
    211c:	00 00       	nop
    211e:	00 00       	nop
    2120:	07 0f       	add	r16, r23
    2122:	0f 1e       	adc	r0, r31
    2124:	1c 1c       	adc	r1, r12
    2126:	1c 1c       	adc	r1, r12
    2128:	0e 0e       	add	r0, r30
    212a:	07 ff       	sbrs	r16, 7
    212c:	ff ff       	.word	0xffff	; ????
	...
    213e:	03 03       	mulsu	r16, r19
    2140:	03 00       	.word	0x0003	; ????
	...
    2152:	00 f0       	brcs	.+0      	; 0x2154 <__stack+0x1855>
    2154:	f0 f0       	brcs	.+60     	; 0x2192 <__stack+0x1893>
    2156:	c0 e0       	ldi	r28, 0x00	; 0
    2158:	f0 70       	andi	r31, 0x00	; 0
    215a:	70 70       	andi	r23, 0x00	; 0
    215c:	70 00       	.word	0x0070	; ????
    215e:	00 00       	nop
    2160:	ff ff       	.word	0xffff	; ????
    2162:	ff 01       	movw	r30, r30
	...
    216c:	00 1f       	adc	r16, r16
    216e:	1f 1f       	adc	r17, r31
	...
    2190:	00 00       	nop
    2192:	00 80       	ld	r0, Z
    2194:	e0 e0       	ldi	r30, 0x00	; 0
    2196:	f0 70       	andi	r31, 0x00	; 0
    2198:	70 70       	andi	r23, 0x00	; 0
    219a:	70 70       	andi	r23, 0x00	; 0
    219c:	f0 e0       	ldi	r31, 0x00	; 0
    219e:	00 00       	nop
    21a0:	00 07       	cpc	r16, r16
    21a2:	0f 0f       	add	r16, r31
    21a4:	1c 1c       	adc	r1, r12
    21a6:	38 38       	cpi	r19, 0x88	; 136
    21a8:	30 70       	andi	r19, 0x00	; 0
    21aa:	f0 e0       	ldi	r31, 0x00	; 0
    21ac:	c0 00       	.word	0x00c0	; ????
    21ae:	00 0e       	add	r0, r16
    21b0:	1e 1c       	adc	r1, r14
    21b2:	1c 1c       	adc	r1, r12
    21b4:	1c 1c       	adc	r1, r12
    21b6:	1c 1e       	adc	r1, r28
    21b8:	0f 07       	cpc	r16, r31
    21ba:	03 00       	.word	0x0003	; ????
	...
    21d4:	00 00       	nop
    21d6:	70 70       	andi	r23, 0x00	; 0
    21d8:	70 ff       	sbrs	r23, 0
    21da:	ff ff       	.word	0xffff	; ????
    21dc:	70 70       	andi	r23, 0x00	; 0
    21de:	70 70       	andi	r23, 0x00	; 0
    21e0:	70 00       	.word	0x0070	; ????
    21e2:	00 00       	nop
    21e4:	00 ff       	sbrs	r16, 0
    21e6:	ff ff       	.word	0xffff	; ????
	...
    21f0:	00 07       	cpc	r16, r16
    21f2:	0f 1f       	adc	r16, r31
    21f4:	1e 1c       	adc	r1, r14
    21f6:	1c 1c       	adc	r1, r12
    21f8:	0e 00       	.word	0x000e	; ????
	...
    221a:	00 00       	nop
    221c:	f0 f0       	brcs	.+60     	; 0x225a <__stack+0x195b>
    221e:	f0 00       	.word	0x00f0	; ????
    2220:	00 00       	nop
    2222:	00 00       	nop
    2224:	00 00       	nop
    2226:	00 f0       	brcs	.+0      	; 0x2228 <__stack+0x1929>
    2228:	f0 f0       	brcs	.+60     	; 0x2266 <__stack+0x1967>
    222a:	00 00       	nop
    222c:	00 00       	nop
    222e:	00 ff       	sbrs	r16, 0
    2230:	ff ff       	.word	0xffff	; ????
	...
    223a:	ff ff       	.word	0xffff	; ????
    223c:	ff 00       	.word	0x00ff	; ????
    223e:	00 00       	nop
    2240:	00 00       	nop
    2242:	03 07       	cpc	r16, r19
    2244:	0f 1f       	adc	r16, r31
    2246:	1e 1c       	adc	r1, r14
    2248:	1c 1c       	adc	r1, r12
    224a:	0e 0e       	add	r0, r30
    224c:	07 1f       	adc	r16, r23
    224e:	1f 1f       	adc	r17, r31
	...
    2274:	00 00       	nop
    2276:	30 f0       	brcs	.+12     	; 0x2284 <__stack+0x1985>
    2278:	f0 e0       	ldi	r31, 0x00	; 0
	...
    2282:	e0 f0       	brcs	.+56     	; 0x22bc <__stack+0x19bd>
    2284:	f0 10       	cpse	r15, r0
    2286:	00 00       	nop
    2288:	00 07       	cpc	r16, r16
    228a:	3f ff       	.word	0xff3f	; ????
    228c:	f8 c0       	rjmp	.+496    	; 0x247e <__stack+0x1b7f>
    228e:	00 00       	nop
    2290:	c0 f8       	bld	r12, 0
    2292:	ff 1f       	adc	r31, r31
    2294:	07 00       	.word	0x0007	; ????
    2296:	00 00       	nop
    2298:	00 00       	nop
    229a:	00 00       	nop
    229c:	01 07       	cpc	r16, r17
    229e:	1f 1f       	adc	r17, r31
    22a0:	1f 1f       	adc	r17, r31
    22a2:	07 00       	.word	0x0007	; ????
	...
    22d4:	00 70       	andi	r16, 0x00	; 0
    22d6:	f0 f0       	brcs	.+60     	; 0x2314 <__stack+0x1a15>
    22d8:	c0 00       	.word	0x00c0	; ????
    22da:	00 00       	nop
    22dc:	00 00       	nop
    22de:	00 e0       	ldi	r16, 0x00	; 0
    22e0:	f0 f0       	brcs	.+60     	; 0x231e <__stack+0x1a1f>
    22e2:	f0 00       	.word	0x00f0	; ????
    22e4:	00 00       	nop
    22e6:	00 00       	nop
    22e8:	00 00       	nop
    22ea:	f0 f0       	brcs	.+60     	; 0x2328 <__stack+0x1a29>
    22ec:	70 00       	.word	0x0070	; ????
    22ee:	00 00       	nop
    22f0:	03 1f       	adc	r16, r19
    22f2:	ff fc       	.word	0xfcff	; ????
    22f4:	e0 00       	.word	0x00e0	; ????
    22f6:	00 f0       	brcs	.+0      	; 0x22f8 <__stack+0x19f9>
    22f8:	fe 3f       	cpi	r31, 0xFE	; 254
    22fa:	07 07       	cpc	r16, r23
    22fc:	3f ff       	.word	0xff3f	; ????
    22fe:	f8 80       	ld	r15, Y
    2300:	00 c0       	rjmp	.+0      	; 0x2302 <__stack+0x1a03>
    2302:	f8 ff       	.word	0xfff8	; ????
    2304:	3f 07       	cpc	r19, r31
    2306:	00 00       	nop
    2308:	00 00       	nop
    230a:	00 00       	nop
    230c:	00 07       	cpc	r16, r16
    230e:	1f 1f       	adc	r17, r31
    2310:	1f 1f       	adc	r17, r31
    2312:	03 00       	.word	0x0003	; ????
    2314:	00 00       	nop
    2316:	00 01       	movw	r0, r0
    2318:	1f 1f       	adc	r17, r31
    231a:	1c 1f       	adc	r17, r28
    231c:	0f 01       	movw	r0, r30
	...
    234a:	00 00       	nop
    234c:	00 10       	cpse	r0, r0
    234e:	70 f0       	brcs	.+28     	; 0x236c <__stack+0x1a6d>
    2350:	f0 c0       	rjmp	.+480    	; 0x2532 <__stack+0x1c33>
    2352:	00 00       	nop
    2354:	00 00       	nop
    2356:	80 e0       	ldi	r24, 0x00	; 0
    2358:	f0 70       	andi	r31, 0x00	; 0
    235a:	30 00       	.word	0x0030	; ????
    235c:	00 00       	nop
    235e:	00 00       	nop
    2360:	83 e7       	ldi	r24, 0x73	; 115
    2362:	ff 7e       	andi	r31, 0xEF	; 239
    2364:	7c ff       	.word	0xff7c	; ????
    2366:	ef c3       	rjmp	.+2014   	; 0x2b46 <__stack+0x2247>
    2368:	01 00       	.word	0x0001	; ????
    236a:	00 00       	nop
    236c:	00 18       	sub	r0, r0
    236e:	1c 1f       	adc	r17, r28
    2370:	0f 03       	fmul	r16, r23
    2372:	01 00       	.word	0x0001	; ????
    2374:	00 01       	movw	r0, r0
    2376:	03 0f       	add	r16, r19
    2378:	1f 1e       	adc	r1, r31
    237a:	18 00       	.word	0x0018	; ????
	...
    239c:	00 00       	nop
    239e:	70 f0       	brcs	.+28     	; 0x23bc <__stack+0x1abd>
    23a0:	f0 c0       	rjmp	.+480    	; 0x2582 <__stack+0x1c83>
    23a2:	00 00       	nop
    23a4:	00 00       	nop
    23a6:	00 00       	nop
    23a8:	00 c0       	rjmp	.+0      	; 0x23aa <__stack+0x1aab>
    23aa:	f0 f0       	brcs	.+60     	; 0x23e8 <__stack+0x1ae9>
    23ac:	30 00       	.word	0x0030	; ????
    23ae:	00 00       	nop
    23b0:	03 0f       	add	r16, r19
    23b2:	7f fe       	.word	0xfe7f	; ????
    23b4:	f0 80       	ld	r15, Z
    23b6:	00 80       	ld	r0, Z
    23b8:	f0 fe       	sbrs	r15, 0
    23ba:	7f 0f       	add	r23, r31
    23bc:	01 00       	.word	0x0001	; ????
    23be:	00 00       	nop
    23c0:	00 00       	nop
    23c2:	00 00       	nop
    23c4:	03 cf       	rjmp	.-506    	; 0x21cc <__stack+0x18cd>
    23c6:	ff fe       	.word	0xfeff	; ????
    23c8:	7f 0f       	add	r23, r31
    23ca:	01 00       	.word	0x0001	; ????
	...
    23d4:	00 02       	muls	r16, r16
    23d6:	03 03       	mulsu	r16, r19
    23d8:	01 00       	.word	0x0001	; ????
	...
    23f2:	70 70       	andi	r23, 0x00	; 0
    23f4:	70 70       	andi	r23, 0x00	; 0
    23f6:	70 70       	andi	r23, 0x00	; 0
    23f8:	70 70       	andi	r23, 0x00	; 0
    23fa:	f0 f0       	brcs	.+60     	; 0x2438 <__stack+0x1b39>
    23fc:	f0 00       	.word	0x00f0	; ????
    23fe:	00 00       	nop
    2400:	00 00       	nop
    2402:	00 80       	ld	r0, Z
    2404:	e0 f0       	brcs	.+56     	; 0x243e <__stack+0x1b3f>
    2406:	78 3e       	cpi	r23, 0xE8	; 232
    2408:	0f 07       	cpc	r16, r31
    240a:	03 00       	.word	0x0003	; ????
    240c:	00 00       	nop
    240e:	00 00       	nop
    2410:	1e 1f       	adc	r17, r30
    2412:	1f 1f       	adc	r17, r31
    2414:	1d 1c       	adc	r1, r13
    2416:	1c 1c       	adc	r1, r12
    2418:	1c 1c       	adc	r1, r12
    241a:	1c 1c       	adc	r1, r12
	...
    2430:	00 c0       	rjmp	.+0      	; 0x2432 <__stack+0x1b33>
    2432:	e0 f0       	brcs	.+56     	; 0x246c <__stack+0x1b6d>
    2434:	70 70       	andi	r23, 0x00	; 0
    2436:	00 00       	nop
    2438:	00 00       	nop
    243a:	00 00       	nop
    243c:	80 ff       	sbrs	r24, 0
    243e:	ff 1f       	adc	r31, r31
    2440:	00 00       	nop
    2442:	00 00       	nop
    2444:	00 00       	nop
    2446:	0e 1f       	adc	r16, r30
    2448:	3b fb       	.word	0xfb3b	; ????
    244a:	f1 00       	.word	0x00f1	; ????
	...
    2454:	00 ff       	sbrs	r16, 0
    2456:	ff ff       	.word	0xffff	; ????
	...
    2460:	00 01       	movw	r0, r0
    2462:	03 03       	mulsu	r16, r19
    2464:	03 03       	mulsu	r16, r19
	...
    246e:	00 f8       	bld	r0, 0
    2470:	f8 f8       	.word	0xf8f8	; ????
	...
    247e:	00 00       	nop
    2480:	ff ff       	.word	0xffff	; ????
    2482:	ff 00       	.word	0x00ff	; ????
	...
    2490:	00 ff       	sbrs	r16, 0
    2492:	ff ff       	.word	0xffff	; ????
	...
    24a0:	00 00       	nop
    24a2:	ff ff       	.word	0xffff	; ????
    24a4:	ff 00       	.word	0x00ff	; ????
	...
    24b2:	00 03       	mulsu	r16, r16
    24b4:	03 03       	mulsu	r16, r19
	...
    24be:	00 70       	andi	r16, 0x00	; 0
    24c0:	70 70       	andi	r23, 0x00	; 0
    24c2:	f0 e0       	ldi	r31, 0x00	; 0
    24c4:	c0 00       	.word	0x00c0	; ????
	...
    24ce:	ff ff       	.word	0xffff	; ????
    24d0:	ff 00       	.word	0x00ff	; ????
	...
    24da:	c1 f3       	breq	.-16     	; 0x24cc <__stack+0x1bcd>
    24dc:	fb 3f       	cpi	r31, 0xFB	; 251
    24de:	0e 0e       	add	r0, r30
    24e0:	00 00       	nop
    24e2:	00 00       	nop
    24e4:	00 00       	nop
    24e6:	ff ff       	.word	0xffff	; ????
    24e8:	ff 00       	.word	0x00ff	; ????
    24ea:	00 00       	nop
    24ec:	00 00       	nop
    24ee:	00 03       	mulsu	r16, r16
    24f0:	03 03       	mulsu	r16, r19
    24f2:	03 03       	mulsu	r16, r19
	...
    250c:	3c 3e       	cpi	r19, 0xEC	; 236
    250e:	0f 07       	cpc	r16, r31
    2510:	07 07       	cpc	r16, r23
    2512:	0f 1e       	adc	r0, r31
    2514:	3c 78       	andi	r19, 0x8C	; 140
    2516:	70 70       	andi	r23, 0x00	; 0
    2518:	70 38       	cpi	r23, 0x80	; 128
    251a:	3e 0e       	add	r3, r30
	...
    2554:	c0 c0       	rjmp	.+384    	; 0x26d6 <__stack+0x1dd7>
    2556:	40 40       	sbci	r20, 0x00	; 0
    2558:	40 40       	sbci	r20, 0x00	; 0
    255a:	40 40       	sbci	r20, 0x00	; 0
    255c:	40 40       	sbci	r20, 0x00	; 0
    255e:	40 40       	sbci	r20, 0x00	; 0
    2560:	40 40       	sbci	r20, 0x00	; 0
    2562:	40 c0       	rjmp	.+128    	; 0x25e4 <__stack+0x1ce5>
    2564:	c0 00       	.word	0x00c0	; ????
    2566:	00 ff       	sbrs	r16, 0
    2568:	ff 00       	.word	0x00ff	; ????
    256a:	00 0c       	add	r0, r0
    256c:	06 06       	cpc	r0, r22
    256e:	06 06       	cpc	r0, r22
    2570:	06 0c       	add	r0, r6
    2572:	fc f0       	brlt	.+62     	; 0x25b2 <__stack+0x1cb3>
    2574:	00 00       	nop
    2576:	ff ff       	.word	0xffff	; ????
    2578:	00 00       	nop
    257a:	ff ff       	.word	0xffff	; ????
    257c:	00 00       	nop
    257e:	00 00       	nop
    2580:	9e 9e       	mul	r9, r30
    2582:	86 06       	cpc	r8, r22
    2584:	03 03       	mulsu	r16, r19
    2586:	00 00       	nop
    2588:	00 ff       	sbrs	r16, 0
    258a:	ff 00       	.word	0x00ff	; ????
    258c:	00 1f       	adc	r16, r16
    258e:	1f 10       	cpse	r1, r15
    2590:	10 10       	cpse	r1, r0
    2592:	10 13       	cpse	r17, r16
    2594:	13 13       	cpse	r17, r19
    2596:	10 10       	cpse	r1, r0
    2598:	10 10       	cpse	r1, r0
    259a:	10 10       	cpse	r1, r0
    259c:	1f 1f       	adc	r17, r31
	...
    25e6:	00 00       	nop
    25e8:	00 06       	cpc	r0, r16
    25ea:	cf cf       	rjmp	.-98     	; 0x258a <__stack+0x1c8b>
    25ec:	cf 00       	.word	0x00cf	; ????
	...
    25f6:	ff ff       	.word	0xffff	; ????
    25f8:	ff 00       	.word	0x00ff	; ????
	...
    2602:	ff ff       	.word	0xffff	; ????
    2604:	ff 00       	.word	0x00ff	; ????
	...
    260e:	01 01       	movw	r0, r2
    2610:	01 00       	.word	0x0001	; ????
	...
    261e:	00 c0       	rjmp	.+0      	; 0x2620 <__stack+0x1d21>
    2620:	c0 00       	.word	0x00c0	; ????
	...
    262a:	00 c0       	rjmp	.+0      	; 0x262c <__stack+0x1d2d>
    262c:	f0 f8       	bld	r15, 0
    262e:	7c 1e       	adc	r7, r28
    2630:	0e 0f       	add	r16, r30
    2632:	0f 0e       	add	r0, r31
    2634:	0e 1c       	adc	r0, r14
    2636:	1c 38       	cpi	r17, 0x8C	; 140
    2638:	00 00       	nop
    263a:	00 00       	nop
    263c:	00 1f       	adc	r16, r16
    263e:	ff ff       	.word	0xffff	; ????
    2640:	f0 c0       	rjmp	.+480    	; 0x2822 <__stack+0x1f23>
    2642:	80 80       	ld	r8, Z
    2644:	80 80       	ld	r8, Z
    2646:	80 c0       	rjmp	.+256    	; 0x2748 <__stack+0x1e49>
    2648:	c0 e0       	ldi	r28, 0x00	; 0
    264a:	00 00       	nop
    264c:	00 00       	nop
    264e:	00 00       	nop
    2650:	00 01       	movw	r0, r0
    2652:	01 03       	mulsu	r16, r17
    2654:	03 1f       	adc	r16, r19
    2656:	1f 03       	fmul	r17, r23
    2658:	03 01       	movw	r0, r6
    265a:	01 00       	.word	0x0001	; ????
	...
    2674:	00 00       	nop
    2676:	80 80       	ld	r8, Z
    2678:	c0 c0       	rjmp	.+384    	; 0x27fa <__stack+0x1efb>
    267a:	c0 c0       	rjmp	.+384    	; 0x27fc <__stack+0x1efd>
    267c:	c0 c0       	rjmp	.+384    	; 0x27fe <__stack+0x1eff>
    267e:	80 80       	ld	r8, Z
    2680:	00 00       	nop
    2682:	00 00       	nop
    2684:	00 00       	nop
    2686:	00 fc       	sbrc	r0, 0
    2688:	ff ff       	.word	0xffff	; ????
    268a:	07 03       	mulsu	r16, r23
    268c:	01 01       	movw	r0, r2
    268e:	01 01       	movw	r0, r2
    2690:	01 03       	mulsu	r16, r17
    2692:	03 07       	cpc	r16, r19
    2694:	00 00       	nop
    2696:	00 07       	cpc	r16, r16
    2698:	07 07       	cpc	r16, r23
    269a:	ff ff       	.word	0xffff	; ????
    269c:	ff 07       	cpc	r31, r31
    269e:	07 07       	cpc	r16, r23
    26a0:	07 07       	cpc	r16, r23
    26a2:	07 07       	cpc	r16, r23
    26a4:	00 00       	nop
    26a6:	00 00       	nop
    26a8:	00 00       	nop
    26aa:	1c 1c       	adc	r1, r12
    26ac:	1c 1f       	adc	r17, r28
    26ae:	1f 1f       	adc	r17, r31
    26b0:	1c 1c       	adc	r1, r12
    26b2:	1c 1c       	adc	r1, r12
    26b4:	1c 1c       	adc	r1, r12
    26b6:	1c 1c       	adc	r1, r12
    26b8:	1c 1c       	adc	r1, r12
	...
    26e2:	01 07       	cpc	r16, r17
    26e4:	cf fe       	.word	0xfecf	; ????
    26e6:	f8 70       	andi	r31, 0x08	; 8
    26e8:	38 38       	cpi	r19, 0x88	; 136
    26ea:	38 38       	cpi	r19, 0x88	; 136
    26ec:	78 f8       	.word	0xf878	; ????
    26ee:	fc ff       	.word	0xfffc	; ????
    26f0:	8f 03       	fmulsu	r16, r23
    26f2:	00 00       	nop
    26f4:	00 0e       	add	r0, r16
    26f6:	7f ff       	.word	0xff7f	; ????
    26f8:	e0 c0       	rjmp	.+448    	; 0x28ba <__stack+0x1fbb>
    26fa:	80 80       	ld	r8, Z
    26fc:	80 80       	ld	r8, Z
    26fe:	c0 e0       	ldi	r28, 0x00	; 0
    2700:	ff 7f       	andi	r31, 0xFF	; 255
    2702:	1f 00       	.word	0x001f	; ????
    2704:	00 00       	nop
    2706:	10 1c       	adc	r1, r0
    2708:	1e 0f       	add	r17, r30
    270a:	07 03       	mulsu	r16, r23
    270c:	03 03       	mulsu	r16, r19
    270e:	03 03       	mulsu	r16, r19
    2710:	03 03       	mulsu	r16, r19
    2712:	0f 1f       	adc	r16, r31
    2714:	1c 18       	sub	r1, r12
	...
    272a:	c0 c0       	rjmp	.+384    	; 0x28ac <__stack+0x1fad>
    272c:	c0 80       	ld	r12, Z
	...
    2736:	00 80       	ld	r0, Z
    2738:	c0 c0       	rjmp	.+384    	; 0x28ba <__stack+0x1fbb>
    273a:	c0 00       	.word	0x00c0	; ????
    273c:	00 00       	nop
    273e:	01 03       	mulsu	r16, r17
    2740:	0f 1f       	adc	r16, r31
    2742:	3c f8       	.word	0xf83c	; ????
    2744:	e0 c0       	rjmp	.+448    	; 0x2906 <__stack+0x2007>
    2746:	e0 f8       	bld	r14, 0
    2748:	3c 1e       	adc	r3, r28
    274a:	0f 03       	fmul	r16, r23
    274c:	01 00       	.word	0x0001	; ????
    274e:	00 00       	nop
    2750:	00 8e       	std	Z+24, r0	; 0x18
    2752:	8e 8e       	std	Y+30, r8	; 0x1e
    2754:	8e 8e       	std	Y+30, r8	; 0x1e
    2756:	8e ff       	.word	0xff8e	; ????
    2758:	ff ff       	.word	0xffff	; ????
    275a:	8e 8e       	std	Y+30, r8	; 0x1e
    275c:	8e 8e       	std	Y+30, r8	; 0x1e
    275e:	8e 8e       	std	Y+30, r8	; 0x1e
    2760:	00 00       	nop
    2762:	00 00       	nop
    2764:	03 03       	mulsu	r16, r19
    2766:	03 03       	mulsu	r16, r19
    2768:	03 03       	mulsu	r16, r19
    276a:	1f 1f       	adc	r17, r31
    276c:	1f 03       	fmul	r17, r23
    276e:	03 03       	mulsu	r16, r19
    2770:	03 03       	mulsu	r16, r19
    2772:	03 00       	.word	0x0003	; ????
	...
    2790:	f8 f8       	.word	0xf8f8	; ????
    2792:	f8 00       	.word	0x00f8	; ????
	...
    27a0:	00 00       	nop
    27a2:	ff ff       	.word	0xffff	; ????
    27a4:	ff 00       	.word	0x00ff	; ????
	...
    27b2:	00 00       	nop
    27b4:	80 80       	ld	r8, Z
    27b6:	80 00       	.word	0x0080	; ????
	...
    27c4:	00 00       	nop
    27c6:	ff ff       	.word	0xffff	; ????
    27c8:	ff 00       	.word	0x00ff	; ????
	...
    27d6:	00 00       	nop
    27d8:	03 03       	mulsu	r16, r19
    27da:	03 00       	.word	0x0003	; ????
	...
    27e4:	00 00       	nop
    27e6:	80 e0       	ldi	r24, 0x00	; 0
    27e8:	e0 f0       	brcs	.+56     	; 0x2822 <__stack+0x1f23>
    27ea:	70 70       	andi	r23, 0x00	; 0
    27ec:	70 70       	andi	r23, 0x00	; 0
    27ee:	e0 e0       	ldi	r30, 0x00	; 0
    27f0:	00 00       	nop
    27f2:	00 00       	nop
    27f4:	00 00       	nop
    27f6:	00 c0       	rjmp	.+0      	; 0x27f8 <__stack+0x1ef9>
    27f8:	e7 ff       	sbrs	r30, 7
    27fa:	7f 38       	cpi	r23, 0x8F	; 143
    27fc:	70 70       	andi	r23, 0x00	; 0
    27fe:	e0 e0       	ldi	r30, 0x00	; 0
    2800:	c0 c0       	rjmp	.+384    	; 0x2982 <__stack+0x2083>
    2802:	80 00       	.word	0x0080	; ????
    2804:	00 00       	nop
    2806:	00 00       	nop
    2808:	0f 3f       	cpi	r16, 0xFF	; 255
    280a:	7f 78       	andi	r23, 0x8F	; 143
    280c:	f0 e0       	ldi	r31, 0x00	; 0
    280e:	e0 c0       	rjmp	.+448    	; 0x29d0 <__stack+0x20d1>
    2810:	c0 c0       	rjmp	.+384    	; 0x2992 <__stack+0x2093>
    2812:	e1 ff       	sbrs	r30, 1
    2814:	7f 1f       	adc	r23, r31
    2816:	00 00       	nop
    2818:	00 00       	nop
    281a:	00 70       	andi	r16, 0x00	; 0
    281c:	e0 e0       	ldi	r30, 0x00	; 0
    281e:	c0 c0       	rjmp	.+384    	; 0x29a0 <__stack+0x20a1>
    2820:	c1 c1       	rjmp	.+898    	; 0x2ba4 <__stack+0x22a5>
    2822:	e3 ff       	sbrs	r30, 3
    2824:	7f 3e       	cpi	r23, 0xEF	; 239
	...
    282e:	00 01       	movw	r0, r0
    2830:	01 01       	movw	r0, r2
    2832:	01 01       	movw	r0, r2
    2834:	01 00       	.word	0x0001	; ????
	...
    283e:	00 c0       	rjmp	.+0      	; 0x2840 <__stack+0x1f41>
    2840:	c0 c0       	rjmp	.+384    	; 0x29c2 <__stack+0x20c3>
    2842:	00 00       	nop
    2844:	00 c0       	rjmp	.+0      	; 0x2846 <__stack+0x1f47>
    2846:	c0 c0       	rjmp	.+384    	; 0x29c8 <__stack+0x20c9>
    2848:	00 00       	nop
    284a:	00 00       	nop
    284c:	00 00       	nop
    284e:	01 01       	movw	r0, r2
    2850:	01 00       	.word	0x0001	; ????
    2852:	00 00       	nop
    2854:	01 01       	movw	r0, r2
    2856:	01 00       	.word	0x0001	; ????
	...
    288c:	00 80       	ld	r0, Z
    288e:	c0 c0       	rjmp	.+384    	; 0x2a10 <__stack+0x2111>
    2890:	60 60       	ori	r22, 0x00	; 0
    2892:	70 30       	cpi	r23, 0x00	; 0
    2894:	30 30       	cpi	r19, 0x00	; 0
    2896:	30 30       	cpi	r19, 0x00	; 0
    2898:	30 30       	cpi	r19, 0x00	; 0
    289a:	70 60       	ori	r23, 0x00	; 0
    289c:	60 e0       	ldi	r22, 0x00	; 0
    289e:	c0 80       	ld	r12, Z
	...
    28a8:	00 e0       	ldi	r16, 0x00	; 0
    28aa:	fc ff       	.word	0xfffc	; ????
    28ac:	07 01       	movw	r0, r14
    28ae:	00 e0       	ldi	r16, 0x00	; 0
    28b0:	f8 fc       	.word	0xfcf8	; ????
    28b2:	3c 1e       	adc	r3, r28
    28b4:	0e 0e       	add	r0, r30
    28b6:	0e 0e       	add	r0, r30
    28b8:	0c 1c       	adc	r0, r12
    28ba:	00 00       	nop
    28bc:	00 01       	movw	r0, r0
    28be:	07 ff       	sbrs	r16, 7
    28c0:	fc e0       	ldi	r31, 0x0C	; 12
    28c2:	00 00       	nop
    28c4:	00 00       	nop
    28c6:	00 00       	nop
    28c8:	1f ff       	.word	0xff1f	; ????
    28ca:	ff c0       	rjmp	.+510    	; 0x2aca <__stack+0x21cb>
    28cc:	00 00       	nop
    28ce:	0f 3f       	cpi	r16, 0xFF	; 255
    28d0:	7f 78       	andi	r23, 0x8F	; 143
    28d2:	f0 e0       	ldi	r31, 0x00	; 0
    28d4:	e0 e0       	ldi	r30, 0x00	; 0
    28d6:	e0 60       	ori	r30, 0x00	; 0
    28d8:	70 00       	.word	0x0070	; ????
    28da:	00 00       	nop
    28dc:	00 c0       	rjmp	.+0      	; 0x28de <__stack+0x1fdf>
    28de:	ff 7f       	andi	r31, 0xFF	; 255
    28e0:	07 00       	.word	0x0007	; ????
    28e2:	00 00       	nop
    28e4:	00 00       	nop
    28e6:	00 00       	nop
    28e8:	00 01       	movw	r0, r0
    28ea:	03 07       	cpc	r16, r19
    28ec:	0e 0c       	add	r0, r14
    28ee:	0c 1c       	adc	r0, r12
    28f0:	18 18       	sub	r1, r8
    28f2:	18 18       	sub	r1, r8
    28f4:	18 18       	sub	r1, r8
    28f6:	18 1c       	adc	r1, r8
    28f8:	0c 0e       	add	r0, r28
    28fa:	06 07       	cpc	r16, r22
    28fc:	03 01       	movw	r0, r6
	...
    2922:	00 00       	nop
    2924:	00 80       	ld	r0, Z
    2926:	80 c0       	rjmp	.+256    	; 0x2a28 <__stack+0x2129>
    2928:	c0 c0       	rjmp	.+384    	; 0x2aaa <__stack+0x21ab>
    292a:	c0 c0       	rjmp	.+384    	; 0x2aac <__stack+0x21ad>
    292c:	80 00       	.word	0x0080	; ????
    292e:	00 00       	nop
    2930:	00 00       	nop
    2932:	00 e0       	ldi	r16, 0x00	; 0
    2934:	f3 f3       	brvs	.-4      	; 0x2932 <__stack+0x2033>
    2936:	19 19       	sub	r17, r9
    2938:	19 19       	sub	r17, r9
    293a:	ff ff       	.word	0xffff	; ????
    293c:	ff 00       	.word	0x00ff	; ????
    293e:	00 00       	nop
    2940:	00 00       	nop
    2942:	c1 c3       	rjmp	.+1922   	; 0x30c6 <__stack+0x27c7>
    2944:	c7 c7       	rjmp	.+3982   	; 0x38d4 <__stack+0x2fd5>
    2946:	c7 c7       	rjmp	.+3982   	; 0x38d6 <__stack+0x2fd7>
    2948:	c7 c3       	rjmp	.+1934   	; 0x30d8 <__stack+0x27d9>
    294a:	c7 c7       	rjmp	.+3982   	; 0x38da <__stack+0x2fdb>
    294c:	00 00       	nop
    294e:	00 00       	nop
    2950:	00 01       	movw	r0, r0
    2952:	01 01       	movw	r0, r2
    2954:	01 01       	movw	r0, r2
    2956:	01 01       	movw	r0, r2
    2958:	01 01       	movw	r0, r2
    295a:	01 00       	.word	0x0001	; ????
	...
    2984:	80 c0       	rjmp	.+256    	; 0x2a86 <__stack+0x2187>
    2986:	f0 70       	andi	r31, 0x00	; 0
    2988:	30 00       	.word	0x0030	; ????
    298a:	00 80       	ld	r0, Z
    298c:	e0 f0       	brcs	.+56     	; 0x29c6 <__stack+0x20c7>
    298e:	70 00       	.word	0x0070	; ????
    2990:	00 00       	nop
    2992:	00 00       	nop
    2994:	00 08       	sbc	r0, r0
    2996:	3e ff       	.word	0xff3e	; ????
    2998:	f7 c1       	rjmp	.+1006   	; 0x2d88 <__stack+0x2489>
    299a:	00 00       	nop
    299c:	1c 3e       	cpi	r17, 0xEC	; 236
    299e:	ff e3       	ldi	r31, 0x3F	; 63
    29a0:	c1 00       	.word	0x00c1	; ????
	...
    29aa:	00 01       	movw	r0, r0
    29ac:	07 07       	cpc	r16, r23
    29ae:	06 00       	.word	0x0006	; ????
    29b0:	00 00       	nop
    29b2:	01 07       	cpc	r16, r17
    29b4:	07 04       	cpc	r0, r7
	...
    29ee:	00 00       	nop
    29f0:	00 0e       	add	r0, r16
    29f2:	0e 0e       	add	r0, r30
    29f4:	0e 0e       	add	r0, r30
    29f6:	0e 0e       	add	r0, r30
    29f8:	0e 0e       	add	r0, r30
    29fa:	0e 0e       	add	r0, r30
    29fc:	0e 0e       	add	r0, r30
    29fe:	0e fe       	.word	0xfe0e	; ????
    2a00:	fe 00       	.word	0x00fe	; ????
	...
    2a3a:	00 00       	nop
    2a3c:	00 1c       	adc	r0, r0
    2a3e:	1c 1c       	adc	r1, r12
    2a40:	1c 1c       	adc	r1, r12
    2a42:	1c 1c       	adc	r1, r12
    2a44:	1c 1c       	adc	r1, r12
	...
    2a5e:	00 00       	nop
    2a60:	80 c0       	rjmp	.+256    	; 0x2b62 <__stack+0x2263>
    2a62:	60 20       	and	r6, r0
    2a64:	90 90 90 90 	lds	r9, 0x9090	; 0x809090 <__bss_end+0x8b21>
    2a68:	90 20       	and	r9, r0
    2a6a:	60 c0       	rjmp	.+192    	; 0x2b2c <__stack+0x222d>
    2a6c:	80 00       	.word	0x0080	; ????
    2a6e:	00 00       	nop
    2a70:	00 00       	nop
    2a72:	1e 7f       	andi	r17, 0xFE	; 254
    2a74:	c0 80       	ld	r12, Z
    2a76:	00 7f       	andi	r16, 0xF0	; 240
    2a78:	08 08       	sbc	r0, r8
    2a7a:	3f 77       	andi	r19, 0x7F	; 127
    2a7c:	40 80       	ld	r4, Z
    2a7e:	e1 7f       	andi	r30, 0xF1	; 241
	...
    2a88:	01 01       	movw	r0, r2
    2a8a:	02 02       	muls	r16, r18
    2a8c:	02 02       	muls	r16, r18
    2a8e:	02 01       	movw	r0, r4
    2a90:	01 00       	.word	0x0001	; ????
	...
    2abe:	e0 e0       	ldi	r30, 0x00	; 0
    2ac0:	e0 e0       	ldi	r30, 0x00	; 0
    2ac2:	e0 e0       	ldi	r30, 0x00	; 0
    2ac4:	e0 e0       	ldi	r30, 0x00	; 0
    2ac6:	e0 e0       	ldi	r30, 0x00	; 0
	...
    2b08:	00 c0       	rjmp	.+0      	; 0x2b0a <__stack+0x220b>
    2b0a:	e0 70       	andi	r30, 0x00	; 0
    2b0c:	30 30       	cpi	r19, 0x00	; 0
    2b0e:	70 e0       	ldi	r23, 0x00	; 0
    2b10:	c0 00       	.word	0x00c0	; ????
    2b12:	00 00       	nop
    2b14:	00 00       	nop
    2b16:	07 0f       	add	r16, r23
    2b18:	1c 18       	sub	r1, r12
    2b1a:	18 1c       	adc	r1, r8
    2b1c:	0f 07       	cpc	r16, r31
	...
    2b4e:	00 00       	nop
    2b50:	80 80       	ld	r8, Z
	...
    2b5a:	00 c0       	rjmp	.+0      	; 0x2b5c <__stack+0x225d>
    2b5c:	c0 c0       	rjmp	.+384    	; 0x2cde <__stack+0x23df>
    2b5e:	c0 c0       	rjmp	.+384    	; 0x2ce0 <__stack+0x23e1>
    2b60:	c0 c0       	rjmp	.+384    	; 0x2ce2 <__stack+0x23e3>
    2b62:	ff ff       	.word	0xffff	; ????
    2b64:	c0 c0       	rjmp	.+384    	; 0x2ce6 <__stack+0x23e7>
    2b66:	c0 c0       	rjmp	.+384    	; 0x2ce8 <__stack+0x23e9>
    2b68:	c0 c0       	rjmp	.+384    	; 0x2cea <__stack+0x23eb>
    2b6a:	c0 00       	.word	0x00c0	; ????
    2b6c:	00 01       	movw	r0, r0
    2b6e:	01 01       	movw	r0, r2
    2b70:	01 01       	movw	r0, r2
    2b72:	01 01       	movw	r0, r2
    2b74:	ff ff       	.word	0xffff	; ????
    2b76:	01 01       	movw	r0, r2
    2b78:	01 01       	movw	r0, r2
    2b7a:	01 01       	movw	r0, r2
    2b7c:	01 00       	.word	0x0001	; ????
    2b7e:	00 1c       	adc	r0, r0
    2b80:	1c 1c       	adc	r1, r12
    2b82:	1c 1c       	adc	r1, r12
    2b84:	1c 1c       	adc	r1, r12
    2b86:	1c 1c       	adc	r1, r12
    2b88:	1c 1c       	adc	r1, r12
    2b8a:	1c 1c       	adc	r1, r12
    2b8c:	1c 1c       	adc	r1, r12
    2b8e:	1c 00       	.word	0x001c	; ????
	...
    2ba0:	00 00       	nop
    2ba2:	00 38       	cpi	r16, 0x80	; 128
    2ba4:	38 1c       	adc	r3, r8
    2ba6:	1c 1c       	adc	r1, r12
    2ba8:	1c fc       	.word	0xfc1c	; ????
    2baa:	f8 f0       	brcs	.+62     	; 0x2bea <__stack+0x22eb>
    2bac:	00 00       	nop
    2bae:	00 e0       	ldi	r16, 0x00	; 0
    2bb0:	f0 f8       	bld	r15, 0
    2bb2:	fc ee       	ldi	r31, 0xEC	; 236
    2bb4:	e7 e3       	ldi	r30, 0x37	; 55
    2bb6:	e1 e0       	ldi	r30, 0x01	; 1
    2bb8:	e0 00       	.word	0x00e0	; ????
	...
    2bde:	00 38       	cpi	r16, 0x80	; 128
    2be0:	38 1c       	adc	r3, r8
    2be2:	1c 1c       	adc	r1, r12
    2be4:	9c fc       	.word	0xfc9c	; ????
    2be6:	f8 70       	andi	r31, 0x08	; 8
    2be8:	00 00       	nop
    2bea:	00 70       	andi	r16, 0x00	; 0
    2bec:	70 e3       	ldi	r23, 0x30	; 48
    2bee:	e3 e3       	ldi	r30, 0x33	; 51
    2bf0:	e3 f7       	brvc	.-8      	; 0x2bea <__stack+0x22eb>
    2bf2:	7e 7e       	andi	r23, 0xEE	; 238
    2bf4:	3c 00       	.word	0x003c	; ????
	...
    2c1a:	00 00       	nop
    2c1c:	00 80       	ld	r0, Z
    2c1e:	c0 f0       	brcs	.+48     	; 0x2c50 <__stack+0x2351>
    2c20:	78 38       	cpi	r23, 0x88	; 136
    2c22:	18 00       	.word	0x0018	; ????
    2c24:	00 00       	nop
    2c26:	00 00       	nop
    2c28:	01 01       	movw	r0, r2
	...
    2c66:	00 00       	nop
    2c68:	f0 f0       	brcs	.+60     	; 0x2ca6 <__stack+0x23a7>
    2c6a:	f0 00       	.word	0x00f0	; ????
    2c6c:	00 00       	nop
    2c6e:	00 00       	nop
    2c70:	00 00       	nop
    2c72:	00 f0       	brcs	.+0      	; 0x2c74 <__stack+0x2375>
    2c74:	f0 f0       	brcs	.+60     	; 0x2cb2 <__stack+0x23b3>
    2c76:	00 00       	nop
    2c78:	00 00       	nop
    2c7a:	00 00       	nop
    2c7c:	ff ff       	.word	0xffff	; ????
    2c7e:	ff 00       	.word	0x00ff	; ????
    2c80:	00 00       	nop
    2c82:	00 00       	nop
    2c84:	00 00       	nop
    2c86:	00 ff       	sbrs	r16, 0
    2c88:	ff ff       	.word	0xffff	; ????
    2c8a:	00 00       	nop
    2c8c:	00 00       	nop
    2c8e:	00 00       	nop
    2c90:	ff ff       	.word	0xffff	; ????
    2c92:	ff 0f       	add	r31, r31
    2c94:	1e 1c       	adc	r1, r14
    2c96:	1c 1c       	adc	r1, r12
    2c98:	0e 0e       	add	r0, r30
    2c9a:	07 07       	cpc	r16, r23
    2c9c:	0f 1f       	adc	r16, r31
    2c9e:	1c 1c       	adc	r1, r12
    2ca0:	1c 00       	.word	0x001c	; ????
    2ca2:	00 00       	nop
    2ca4:	03 03       	mulsu	r16, r19
    2ca6:	03 00       	.word	0x0003	; ????
	...
    2cb8:	00 00       	nop
    2cba:	80 c0       	rjmp	.+256    	; 0x2dbc <__stack+0x24bd>
    2cbc:	c0 c0       	rjmp	.+384    	; 0x2e3e <__stack+0x253f>
    2cbe:	c0 c0       	rjmp	.+384    	; 0x2e40 <__stack+0x2541>
    2cc0:	c0 c0       	rjmp	.+384    	; 0x2e42 <__stack+0x2543>
    2cc2:	c0 c0       	rjmp	.+384    	; 0x2e44 <__stack+0x2545>
    2cc4:	c0 c0       	rjmp	.+384    	; 0x2e46 <__stack+0x2547>
    2cc6:	c0 00       	.word	0x00c0	; ????
    2cc8:	00 00       	nop
    2cca:	00 00       	nop
    2ccc:	00 fc       	sbrc	r0, 0
    2cce:	fe ff       	.word	0xfffe	; ????
    2cd0:	ff ff       	.word	0xffff	; ????
    2cd2:	ff ff       	.word	0xffff	; ????
    2cd4:	ff ff       	.word	0xffff	; ????
    2cd6:	ff 01       	movw	r30, r30
    2cd8:	01 01       	movw	r0, r2
    2cda:	01 ff       	sbrs	r16, 1
    2cdc:	ff 00       	.word	0x00ff	; ????
    2cde:	00 00       	nop
    2ce0:	00 00       	nop
    2ce2:	00 00       	nop
    2ce4:	03 03       	mulsu	r16, r19
    2ce6:	07 0f       	add	r16, r23
    2ce8:	0f 0f       	add	r16, r31
    2cea:	0f ff       	.word	0xff0f	; ????
    2cec:	ff 00       	.word	0x00ff	; ????
    2cee:	00 00       	nop
    2cf0:	00 ff       	sbrs	r16, 0
    2cf2:	ff 00       	.word	0x00ff	; ????
	...
    2d00:	00 ff       	sbrs	r16, 0
    2d02:	ff 00       	.word	0x00ff	; ????
    2d04:	00 00       	nop
    2d06:	00 ff       	sbrs	r16, 0
    2d08:	ff 00       	.word	0x00ff	; ????
	...
    2d16:	00 01       	movw	r0, r0
    2d18:	01 00       	.word	0x0001	; ????
    2d1a:	00 00       	nop
    2d1c:	00 01       	movw	r0, r0
    2d1e:	01 00       	.word	0x0001	; ????
	...
    2d38:	1e 1e       	adc	r1, r30
    2d3a:	1e 1e       	adc	r1, r30
	...
    2d74:	00 00       	nop
    2d76:	20 60       	ori	r18, 0x00	; 0
    2d78:	c0 80       	ld	r12, Z
    2d7a:	00 00       	nop
    2d7c:	00 00       	nop
    2d7e:	03 03       	mulsu	r16, r19
    2d80:	03 03       	mulsu	r16, r19
    2d82:	03 03       	mulsu	r16, r19
    2d84:	03 00       	.word	0x0003	; ????
    2d86:	00 30       	cpi	r16, 0x00	; 0
    2d88:	30 18       	sub	r3, r0
    2d8a:	18 fc       	.word	0xfc18	; ????
    2d8c:	fc 00       	.word	0x00fc	; ????
    2d8e:	00 00       	nop
    2d90:	00 00       	nop
    2d92:	00 00       	nop
    2d94:	ff ff       	.word	0xffff	; ????
	...
    2db6:	00 00       	nop
    2db8:	80 c0       	rjmp	.+256    	; 0x2eba <__stack+0x25bb>
    2dba:	c0 c0       	rjmp	.+384    	; 0x2f3c <__stack+0x263d>
    2dbc:	c0 c0       	rjmp	.+384    	; 0x2f3e <__stack+0x263f>
    2dbe:	c0 80       	ld	r12, Z
    2dc0:	00 00       	nop
    2dc2:	00 00       	nop
    2dc4:	00 00       	nop
    2dc6:	fe ff       	.word	0xfffe	; ????
    2dc8:	ff 83       	std	Y+7, r31	; 0x07
    2dca:	01 01       	movw	r0, r2
    2dcc:	01 01       	movw	r0, r2
    2dce:	c7 ff       	sbrs	r28, 7
    2dd0:	ff 7c       	andi	r31, 0xCF	; 207
    2dd2:	00 00       	nop
    2dd4:	00 00       	nop
    2dd6:	80 c3       	rjmp	.+1792   	; 0x34d8 <__stack+0x2bd9>
    2dd8:	c3 c7       	rjmp	.+3974   	; 0x3d60 <__stack+0x3461>
    2dda:	c7 c7       	rjmp	.+3982   	; 0x3d6a <__stack+0x346b>
    2ddc:	c7 c7       	rjmp	.+3982   	; 0x3d6c <__stack+0x346d>
    2dde:	c3 c3       	rjmp	.+1926   	; 0x3566 <__stack+0x2c67>
    2de0:	c1 00       	.word	0x00c1	; ????
    2de2:	00 00       	nop
    2de4:	00 00       	nop
    2de6:	00 01       	movw	r0, r0
    2de8:	01 01       	movw	r0, r2
    2dea:	01 01       	movw	r0, r2
    2dec:	01 01       	movw	r0, r2
    2dee:	01 01       	movw	r0, r2
    2df0:	01 00       	.word	0x0001	; ????
	...
    2e1a:	30 70       	andi	r19, 0x00	; 0
    2e1c:	f0 c0       	rjmp	.+480    	; 0x2ffe <__stack+0x26ff>
    2e1e:	80 00       	.word	0x0080	; ????
    2e20:	00 30       	cpi	r16, 0x00	; 0
    2e22:	70 f0       	brcs	.+28     	; 0x2e40 <__stack+0x2541>
    2e24:	c0 00       	.word	0x00c0	; ????
	...
    2e2e:	00 c1       	rjmp	.+512    	; 0x3030 <__stack+0x2731>
    2e30:	e3 ff       	sbrs	r30, 3
    2e32:	3e 1c       	adc	r3, r14
    2e34:	00 00       	nop
    2e36:	c1 f7       	brne	.-16     	; 0x2e28 <__stack+0x2529>
    2e38:	ff 3e       	cpi	r31, 0xEF	; 239
    2e3a:	08 00       	.word	0x0008	; ????
    2e3c:	00 00       	nop
    2e3e:	00 00       	nop
    2e40:	04 07       	cpc	r16, r20
    2e42:	07 01       	movw	r0, r14
    2e44:	00 00       	nop
    2e46:	00 06       	cpc	r0, r16
    2e48:	07 07       	cpc	r16, r23
    2e4a:	01 00       	.word	0x0001	; ????
	...
    2e60:	00 00       	nop
    2e62:	00 80       	ld	r0, Z
    2e64:	80 c0       	rjmp	.+256    	; 0x2f66 <__stack+0x2667>
    2e66:	e0 e0       	ldi	r30, 0x00	; 0
    2e68:	e0 00       	.word	0x00e0	; ????
	...
    2e72:	00 00       	nop
    2e74:	80 e0       	ldi	r24, 0x00	; 0
    2e76:	e0 20       	and	r14, r0
    2e78:	00 00       	nop
    2e7a:	00 01       	movw	r0, r0
    2e7c:	01 00       	.word	0x0001	; ????
    2e7e:	00 ff       	sbrs	r16, 0
    2e80:	ff 00       	.word	0x00ff	; ????
    2e82:	00 00       	nop
    2e84:	00 00       	nop
    2e86:	80 c0       	rjmp	.+256    	; 0x2f88 <__stack+0x2689>
    2e88:	e0 78       	andi	r30, 0x80	; 128
    2e8a:	3c 0f       	add	r19, r28
    2e8c:	07 01       	movw	r0, r14
	...
    2e96:	00 01       	movw	r0, r0
    2e98:	01 80       	ldd	r0, Z+1	; 0x01
    2e9a:	e0 f0       	brcs	.+56     	; 0x2ed4 <__stack+0x25d5>
    2e9c:	3c 1e       	adc	r3, r28
    2e9e:	07 03       	mulsu	r16, r23
    2ea0:	81 e0       	ldi	r24, 0x01	; 1
    2ea2:	78 1c       	adc	r7, r8
    2ea4:	0e fe       	.word	0xfe0e	; ????
    2ea6:	fe 00       	.word	0x00fe	; ????
    2ea8:	00 00       	nop
    2eaa:	00 00       	nop
    2eac:	00 20       	and	r0, r0
    2eae:	38 3c       	cpi	r19, 0xC8	; 200
    2eb0:	0f 07       	cpc	r16, r31
    2eb2:	01 00       	.word	0x0001	; ????
    2eb4:	00 00       	nop
    2eb6:	00 07       	cpc	r16, r16
    2eb8:	07 06       	cpc	r0, r23
    2eba:	06 06       	cpc	r0, r22
    2ebc:	06 1f       	adc	r16, r22
    2ebe:	1f 06       	cpc	r1, r31
    2ec0:	06 00       	.word	0x0006	; ????
	...
    2eda:	00 80       	ld	r0, Z
    2edc:	80 c0       	rjmp	.+256    	; 0x2fde <__stack+0x26df>
    2ede:	e0 e0       	ldi	r30, 0x00	; 0
    2ee0:	e0 00       	.word	0x00e0	; ????
	...
    2eea:	00 00       	nop
    2eec:	80 e0       	ldi	r24, 0x00	; 0
    2eee:	e0 20       	and	r14, r0
    2ef0:	00 00       	nop
    2ef2:	00 00       	nop
    2ef4:	01 01       	movw	r0, r2
    2ef6:	00 00       	nop
    2ef8:	ff ff       	.word	0xffff	; ????
    2efa:	00 00       	nop
    2efc:	00 00       	nop
    2efe:	00 80       	ld	r0, Z
    2f00:	c0 e0       	ldi	r28, 0x00	; 0
    2f02:	78 3c       	cpi	r23, 0xC8	; 200
    2f04:	0f 07       	cpc	r16, r31
    2f06:	01 00       	.word	0x0001	; ????
	...
    2f10:	00 01       	movw	r0, r0
    2f12:	01 80       	ldd	r0, Z+1	; 0x01
    2f14:	e0 f0       	brcs	.+56     	; 0x2f4e <__stack+0x264f>
    2f16:	3c 1e       	adc	r3, r28
    2f18:	07 03       	mulsu	r16, r23
    2f1a:	01 0c       	add	r0, r1
    2f1c:	06 06       	cpc	r0, r22
    2f1e:	06 c6       	rjmp	.+3084   	; 0x3b2c <__stack+0x322d>
    2f20:	fe fc       	.word	0xfcfe	; ????
    2f22:	38 00       	.word	0x0038	; ????
    2f24:	00 00       	nop
    2f26:	00 00       	nop
    2f28:	20 38       	cpi	r18, 0x80	; 128
    2f2a:	3c 0f       	add	r19, r28
    2f2c:	07 01       	movw	r0, r14
    2f2e:	00 00       	nop
    2f30:	00 00       	nop
    2f32:	00 00       	nop
    2f34:	18 1c       	adc	r1, r8
    2f36:	1e 1f       	adc	r17, r30
    2f38:	1b 19       	sub	r17, r11
    2f3a:	18 18       	sub	r1, r8
    2f3c:	18 00       	.word	0x0018	; ????
	...
    2f56:	00 00       	nop
    2f58:	00 c0       	rjmp	.+0      	; 0x2f5a <__stack+0x265b>
    2f5a:	e0 60       	ori	r30, 0x00	; 0
    2f5c:	60 60       	ori	r22, 0x00	; 0
    2f5e:	60 c0       	rjmp	.+192    	; 0x3020 <__stack+0x2721>
    2f60:	c0 00       	.word	0x00c0	; ????
	...
    2f6a:	00 80       	ld	r0, Z
    2f6c:	e0 e0       	ldi	r30, 0x00	; 0
    2f6e:	20 00       	.word	0x0020	; ????
    2f70:	00 00       	nop
    2f72:	c0 8c       	ldd	r12, Z+24	; 0x18
    2f74:	8c 8c       	ldd	r8, Y+28	; 0x1c
    2f76:	8c de       	rcall	.-744    	; 0x2c90 <__stack+0x2391>
    2f78:	fb fb       	.word	0xfbfb	; ????
    2f7a:	70 00       	.word	0x0070	; ????
    2f7c:	00 00       	nop
    2f7e:	80 c0       	rjmp	.+256    	; 0x3080 <__stack+0x2781>
    2f80:	e0 78       	andi	r30, 0x80	; 128
    2f82:	3c 0f       	add	r19, r28
    2f84:	07 01       	movw	r0, r14
    2f86:	00 00       	nop
    2f88:	00 00       	nop
    2f8a:	00 00       	nop
    2f8c:	01 01       	movw	r0, r2
    2f8e:	01 01       	movw	r0, r2
    2f90:	01 01       	movw	r0, r2
    2f92:	80 e0       	ldi	r24, 0x00	; 0
    2f94:	f0 3c       	cpi	r31, 0xC0	; 192
    2f96:	1e 07       	cpc	r17, r30
    2f98:	83 e1       	ldi	r24, 0x13	; 19
    2f9a:	78 1c       	adc	r7, r8
    2f9c:	0e fe       	.word	0xfe0e	; ????
    2f9e:	fe 00       	.word	0x00fe	; ????
    2fa0:	00 00       	nop
    2fa2:	00 00       	nop
    2fa4:	00 00       	nop
    2fa6:	00 20       	and	r0, r0
    2fa8:	38 3c       	cpi	r19, 0xC8	; 200
    2faa:	0f 07       	cpc	r16, r31
    2fac:	01 00       	.word	0x0001	; ????
    2fae:	00 00       	nop
    2fb0:	07 07       	cpc	r16, r23
    2fb2:	06 06       	cpc	r0, r22
    2fb4:	06 06       	cpc	r0, r22
    2fb6:	1f 1f       	adc	r17, r31
    2fb8:	06 06       	cpc	r0, r22
	...
    2fea:	00 00       	nop
    2fec:	00 06       	cpc	r0, r16
    2fee:	cf cf       	rjmp	.-98     	; 0x2f8e <__stack+0x268f>
    2ff0:	cf 00       	.word	0x00cf	; ????
    2ff2:	00 00       	nop
    2ff4:	00 00       	nop
    2ff6:	00 00       	nop
    2ff8:	00 c0       	rjmp	.+0      	; 0x2ffa <__stack+0x26fb>
    2ffa:	e0 f0       	brcs	.+56     	; 0x3034 <__stack+0x2735>
    2ffc:	78 38       	cpi	r23, 0x88	; 136
    2ffe:	18 1f       	adc	r17, r24
    3000:	1f 1f       	adc	r17, r31
	...
    300a:	3f 7f       	andi	r19, 0xFF	; 255
    300c:	ff f0       	brie	.+62     	; 0x304c <__stack+0x274d>
    300e:	e0 c0       	rjmp	.+448    	; 0x31d0 <__stack+0x28d1>
    3010:	c0 c0       	rjmp	.+384    	; 0x3192 <__stack+0x2893>
    3012:	c0 c0       	rjmp	.+384    	; 0x3194 <__stack+0x2895>
    3014:	c0 e0       	ldi	r28, 0x00	; 0
    3016:	60 00       	.word	0x0060	; ????
    3018:	00 00       	nop
    301a:	00 00       	nop
    301c:	00 00       	nop
    301e:	00 01       	movw	r0, r0
    3020:	01 01       	movw	r0, r2
    3022:	01 01       	movw	r0, r2
    3024:	01 00       	.word	0x0001	; ????
	...
    302e:	00 00       	nop
    3030:	01 03       	mulsu	r16, r17
    3032:	87 ce       	rjmp	.-754    	; 0x2d42 <__stack+0x2443>
    3034:	cc c8       	rjmp	.-3688   	; 0x21ce <__stack+0x18cf>
    3036:	c0 00       	.word	0x00c0	; ????
	...
    3044:	80 f0       	brcs	.+32     	; 0x3066 <__stack+0x2767>
    3046:	fc 7f       	andi	r31, 0xFC	; 252
    3048:	0f 01       	movw	r0, r30
    304a:	0f 3f       	cpi	r16, 0xFF	; 255
    304c:	fe f8       	.word	0xf8fe	; ????
    304e:	c0 00       	.word	0x00c0	; ????
    3050:	00 00       	nop
    3052:	00 00       	nop
    3054:	00 00       	nop
    3056:	80 e0       	ldi	r24, 0x00	; 0
    3058:	fc ff       	.word	0xfffc	; ????
    305a:	7f 71       	andi	r23, 0x1F	; 31
    305c:	70 70       	andi	r23, 0x00	; 0
    305e:	70 70       	andi	r23, 0x00	; 0
    3060:	70 71       	andi	r23, 0x10	; 16
    3062:	7f 7f       	andi	r23, 0xFF	; 255
    3064:	fe f8       	.word	0xf8fe	; ????
    3066:	c0 00       	.word	0x00c0	; ????
    3068:	00 00       	nop
    306a:	1c 1f       	adc	r17, r28
    306c:	1f 03       	fmul	r17, r23
	...
    3076:	00 00       	nop
    3078:	00 03       	mulsu	r16, r16
    307a:	1f 1f       	adc	r17, r31
    307c:	1e 10       	cpse	r1, r14
	...
    309a:	00 80       	ld	r0, Z
    309c:	c0 c8       	rjmp	.-3712   	; 0x221e <__stack+0x191f>
    309e:	cc ce       	rjmp	.-616    	; 0x2e38 <__stack+0x2539>
    30a0:	07 03       	mulsu	r16, r23
    30a2:	01 00       	.word	0x0001	; ????
	...
    30ac:	00 80       	ld	r0, Z
    30ae:	f0 fc       	sbrc	r15, 0
    30b0:	7f 0f       	add	r23, r31
    30b2:	01 0f       	add	r16, r17
    30b4:	3f fe       	.word	0xfe3f	; ????
    30b6:	f8 c0       	rjmp	.+496    	; 0x32a8 <__stack+0x29a9>
    30b8:	00 00       	nop
    30ba:	00 00       	nop
    30bc:	00 00       	nop
    30be:	00 80       	ld	r0, Z
    30c0:	e0 fc       	sbrc	r14, 0
    30c2:	ff 7f       	andi	r31, 0xFF	; 255
    30c4:	71 70       	andi	r23, 0x01	; 1
    30c6:	70 70       	andi	r23, 0x00	; 0
    30c8:	70 70       	andi	r23, 0x00	; 0
    30ca:	71 7f       	andi	r23, 0xF1	; 241
    30cc:	7f fe       	.word	0xfe7f	; ????
    30ce:	f8 c0       	rjmp	.+496    	; 0x32c0 <__stack+0x29c1>
    30d0:	00 00       	nop
    30d2:	00 1c       	adc	r0, r0
    30d4:	1f 1f       	adc	r17, r31
    30d6:	03 00       	.word	0x0003	; ????
	...
    30e0:	00 00       	nop
    30e2:	03 1f       	adc	r16, r19
    30e4:	1f 1e       	adc	r1, r31
    30e6:	10 00       	.word	0x0010	; ????
	...
    3100:	00 08       	sbc	r0, r0
    3102:	0c 0c       	add	r0, r12
    3104:	8e c7       	rjmp	.+3868   	; 0x4022 <__stack+0x3723>
    3106:	c3 c1       	rjmp	.+902    	; 0x348e <__stack+0x2b8f>
    3108:	c3 07       	cpc	r28, r19
    310a:	0e 0c       	add	r0, r14
    310c:	0c 08       	sbc	r0, r12
	...
    3116:	80 f0       	brcs	.+32     	; 0x3138 <__stack+0x2839>
    3118:	fc 7f       	andi	r31, 0xFC	; 252
    311a:	0f 01       	movw	r0, r30
    311c:	0f 3f       	cpi	r16, 0xFF	; 255
    311e:	fe f8       	.word	0xf8fe	; ????
    3120:	c0 00       	.word	0x00c0	; ????
    3122:	00 00       	nop
    3124:	00 00       	nop
    3126:	00 00       	nop
    3128:	80 e0       	ldi	r24, 0x00	; 0
    312a:	fc ff       	.word	0xfffc	; ????
    312c:	7f 71       	andi	r23, 0x1F	; 31
    312e:	70 70       	andi	r23, 0x00	; 0
    3130:	70 70       	andi	r23, 0x00	; 0
    3132:	70 71       	andi	r23, 0x10	; 16
    3134:	7f 7f       	andi	r23, 0xFF	; 255
    3136:	fe f8       	.word	0xf8fe	; ????
    3138:	c0 00       	.word	0x00c0	; ????
    313a:	00 00       	nop
    313c:	1c 1f       	adc	r17, r28
    313e:	1f 03       	fmul	r17, r23
	...
    3148:	00 00       	nop
    314a:	00 03       	mulsu	r16, r16
    314c:	1f 1f       	adc	r17, r31
    314e:	1e 10       	cpse	r1, r14
	...
    3168:	00 0e       	add	r0, r16
    316a:	0f 03       	fmul	r16, r23
    316c:	03 83       	std	Z+3, r16	; 0x03
    316e:	c7 cf       	rjmp	.-114    	; 0x30fe <__stack+0x27ff>
    3170:	ce ce       	rjmp	.-612    	; 0x2f0e <__stack+0x260f>
    3172:	0e 07       	cpc	r16, r30
    3174:	03 00       	.word	0x0003	; ????
	...
    317e:	00 80       	ld	r0, Z
    3180:	f0 fc       	sbrc	r15, 0
    3182:	7f 0f       	add	r23, r31
    3184:	01 0f       	add	r16, r17
    3186:	3f fe       	.word	0xfe3f	; ????
    3188:	f8 c0       	rjmp	.+496    	; 0x337a <__stack+0x2a7b>
    318a:	00 00       	nop
    318c:	00 00       	nop
    318e:	00 00       	nop
    3190:	00 80       	ld	r0, Z
    3192:	e0 fc       	sbrc	r14, 0
    3194:	ff 7f       	andi	r31, 0xFF	; 255
    3196:	71 70       	andi	r23, 0x01	; 1
    3198:	70 70       	andi	r23, 0x00	; 0
    319a:	70 70       	andi	r23, 0x00	; 0
    319c:	71 7f       	andi	r23, 0xF1	; 241
    319e:	7f fe       	.word	0xfe7f	; ????
    31a0:	f8 c0       	rjmp	.+496    	; 0x3392 <__stack+0x2a93>
    31a2:	00 00       	nop
    31a4:	00 1c       	adc	r0, r0
    31a6:	1f 1f       	adc	r17, r31
    31a8:	03 00       	.word	0x0003	; ????
	...
    31b2:	00 00       	nop
    31b4:	03 1f       	adc	r16, r19
    31b6:	1f 1e       	adc	r1, r31
    31b8:	10 00       	.word	0x0010	; ????
	...
    31d2:	00 00       	nop
    31d4:	0e 0e       	add	r0, r30
    31d6:	8e c0       	rjmp	.+284    	; 0x32f4 <__stack+0x29f5>
    31d8:	c0 c0       	rjmp	.+384    	; 0x335a <__stack+0x2a5b>
    31da:	c0 0e       	add	r12, r16
    31dc:	0e 0e       	add	r0, r30
	...
    31e6:	00 00       	nop
    31e8:	80 f0       	brcs	.+32     	; 0x320a <__stack+0x290b>
    31ea:	fc 7f       	andi	r31, 0xFC	; 252
    31ec:	0f 01       	movw	r0, r30
    31ee:	0f 3f       	cpi	r16, 0xFF	; 255
    31f0:	fe f8       	.word	0xf8fe	; ????
    31f2:	c0 00       	.word	0x00c0	; ????
    31f4:	00 00       	nop
    31f6:	00 00       	nop
    31f8:	00 00       	nop
    31fa:	80 e0       	ldi	r24, 0x00	; 0
    31fc:	fc ff       	.word	0xfffc	; ????
    31fe:	7f 71       	andi	r23, 0x1F	; 31
    3200:	70 70       	andi	r23, 0x00	; 0
    3202:	70 70       	andi	r23, 0x00	; 0
    3204:	70 71       	andi	r23, 0x10	; 16
    3206:	7f 7f       	andi	r23, 0xFF	; 255
    3208:	fe f8       	.word	0xf8fe	; ????
    320a:	c0 00       	.word	0x00c0	; ????
    320c:	00 00       	nop
    320e:	1c 1f       	adc	r17, r28
    3210:	1f 03       	fmul	r17, r23
	...
    321a:	00 00       	nop
    321c:	00 03       	mulsu	r16, r16
    321e:	1f 1f       	adc	r17, r31
    3220:	1e 10       	cpse	r1, r14
	...
    323e:	0f 9f       	mul	r16, r31
    3240:	d8 d8       	rcall	.-3664   	; 0x23f2 <__stack+0x1af3>
    3242:	d8 cf       	rjmp	.-80     	; 0x31f4 <__stack+0x28f5>
    3244:	07 00       	.word	0x0007	; ????
	...
    324e:	00 00       	nop
    3250:	00 80       	ld	r0, Z
    3252:	f0 fc       	sbrc	r15, 0
    3254:	7f 0f       	add	r23, r31
    3256:	01 0f       	add	r16, r17
    3258:	3f fe       	.word	0xfe3f	; ????
    325a:	f8 c0       	rjmp	.+496    	; 0x344c <__stack+0x2b4d>
    325c:	00 00       	nop
    325e:	00 00       	nop
    3260:	00 00       	nop
    3262:	00 80       	ld	r0, Z
    3264:	e0 fc       	sbrc	r14, 0
    3266:	ff 7f       	andi	r31, 0xFF	; 255
    3268:	71 70       	andi	r23, 0x01	; 1
    326a:	70 70       	andi	r23, 0x00	; 0
    326c:	70 70       	andi	r23, 0x00	; 0
    326e:	71 7f       	andi	r23, 0xF1	; 241
    3270:	7f fe       	.word	0xfe7f	; ????
    3272:	f8 c0       	rjmp	.+496    	; 0x3464 <__stack+0x2b65>
    3274:	00 00       	nop
    3276:	00 1c       	adc	r0, r0
    3278:	1f 1f       	adc	r17, r31
    327a:	03 00       	.word	0x0003	; ????
	...
    3284:	00 00       	nop
    3286:	03 1f       	adc	r16, r19
    3288:	1f 1e       	adc	r1, r31
    328a:	10 00       	.word	0x0010	; ????
	...
    32a8:	00 00       	nop
    32aa:	00 80       	ld	r0, Z
    32ac:	c0 c0       	rjmp	.+384    	; 0x342e <__stack+0x2b2f>
    32ae:	c0 c0       	rjmp	.+384    	; 0x3430 <__stack+0x2b31>
    32b0:	c0 c0       	rjmp	.+384    	; 0x3432 <__stack+0x2b33>
    32b2:	c0 c0       	rjmp	.+384    	; 0x3434 <__stack+0x2b35>
    32b4:	c0 c0       	rjmp	.+384    	; 0x3436 <__stack+0x2b37>
    32b6:	c0 c0       	rjmp	.+384    	; 0x3438 <__stack+0x2b39>
    32b8:	c0 c0       	rjmp	.+384    	; 0x343a <__stack+0x2b3b>
    32ba:	c0 00       	.word	0x00c0	; ????
    32bc:	00 00       	nop
    32be:	00 00       	nop
    32c0:	00 00       	nop
    32c2:	00 c0       	rjmp	.+0      	; 0x32c4 <__stack+0x29c5>
    32c4:	f0 fc       	sbrc	r15, 0
    32c6:	7f 1f       	adc	r23, r31
    32c8:	07 01       	movw	r0, r14
    32ca:	ff ff       	.word	0xffff	; ????
    32cc:	ff 01       	movw	r30, r30
    32ce:	01 01       	movw	r0, r2
    32d0:	01 01       	movw	r0, r2
    32d2:	01 01       	movw	r0, r2
    32d4:	01 01       	movw	r0, r2
    32d6:	01 00       	.word	0x0001	; ????
    32d8:	00 00       	nop
    32da:	00 c0       	rjmp	.+0      	; 0x32dc <__stack+0x29dd>
    32dc:	f0 fc       	sbrc	r15, 0
    32de:	7f 7f       	andi	r23, 0xFF	; 255
    32e0:	77 71       	andi	r23, 0x17	; 23
    32e2:	70 70       	andi	r23, 0x00	; 0
    32e4:	70 70       	andi	r23, 0x00	; 0
    32e6:	ff ff       	.word	0xffff	; ????
    32e8:	ff 07       	cpc	r31, r31
    32ea:	07 07       	cpc	r16, r23
    32ec:	07 07       	cpc	r16, r23
    32ee:	07 07       	cpc	r16, r23
    32f0:	07 07       	cpc	r16, r23
    32f2:	00 00       	nop
    32f4:	18 1e       	adc	r1, r24
    32f6:	1f 0f       	add	r17, r31
    32f8:	03 00       	.word	0x0003	; ????
	...
    3302:	1f 1f       	adc	r17, r31
    3304:	1f 1c       	adc	r1, r15
    3306:	1c 1c       	adc	r1, r12
    3308:	1c 1c       	adc	r1, r12
    330a:	1c 1c       	adc	r1, r12
    330c:	1c 1c       	adc	r1, r12
    330e:	1c 00       	.word	0x001c	; ????
	...
    3330:	00 00       	nop
    3332:	00 80       	ld	r0, Z
    3334:	80 c0       	rjmp	.+256    	; 0x3436 <__stack+0x2b37>
    3336:	c0 c0       	rjmp	.+384    	; 0x34b8 <__stack+0x2bb9>
    3338:	c0 c0       	rjmp	.+384    	; 0x34ba <__stack+0x2bbb>
    333a:	c0 c0       	rjmp	.+384    	; 0x34bc <__stack+0x2bbd>
    333c:	80 80       	ld	r8, Z
    333e:	00 00       	nop
    3340:	00 00       	nop
    3342:	c0 f8       	bld	r12, 0
    3344:	fc 3f       	cpi	r31, 0xFC	; 252
    3346:	0f 07       	cpc	r16, r31
    3348:	03 01       	movw	r0, r6
    334a:	01 01       	movw	r0, r2
    334c:	01 01       	movw	r0, r2
    334e:	01 03       	mulsu	r16, r17
    3350:	03 07       	cpc	r16, r19
    3352:	07 00       	.word	0x0007	; ????
    3354:	00 00       	nop
    3356:	3f ff       	.word	0xff3f	; ????
    3358:	ff e0       	ldi	r31, 0x0F	; 15
    335a:	80 00       	.word	0x0080	; ????
	...
    3368:	00 00       	nop
    336a:	00 01       	movw	r0, r0
    336c:	03 07       	cpc	r16, r19
    336e:	0f 0f       	add	r16, r31
    3370:	1e 1c       	adc	r1, r14
    3372:	1c 3c       	cpi	r17, 0xCC	; 204
    3374:	fc dc       	rcall	.-1544   	; 0x2d6e <__stack+0x246f>
    3376:	1c 1e       	adc	r1, r28
    3378:	0e 0f       	add	r16, r30
    337a:	07 00       	.word	0x0007	; ????
    337c:	00 00       	nop
    337e:	00 00       	nop
    3380:	00 00       	nop
    3382:	00 02       	muls	r16, r16
    3384:	02 02       	muls	r16, r18
    3386:	02 02       	muls	r16, r18
    3388:	03 03       	mulsu	r16, r19
	...
    3392:	00 c0       	rjmp	.+0      	; 0x3394 <__stack+0x2a95>
    3394:	c0 c1       	rjmp	.+896    	; 0x3716 <__stack+0x2e17>
    3396:	c3 c7       	rjmp	.+3974   	; 0x431e <__stack+0x3a1f>
    3398:	ce cc       	rjmp	.-1636   	; 0x2d36 <__stack+0x2437>
    339a:	c8 c0       	rjmp	.+400    	; 0x352c <__stack+0x2c2d>
    339c:	c0 c0       	rjmp	.+384    	; 0x351e <__stack+0x2c1f>
    339e:	c0 c0       	rjmp	.+384    	; 0x3520 <__stack+0x2c21>
    33a0:	00 00       	nop
    33a2:	00 00       	nop
    33a4:	00 ff       	sbrs	r16, 0
    33a6:	ff ff       	.word	0xffff	; ????
    33a8:	01 01       	movw	r0, r2
    33aa:	01 01       	movw	r0, r2
    33ac:	01 01       	movw	r0, r2
    33ae:	01 01       	movw	r0, r2
    33b0:	01 01       	movw	r0, r2
    33b2:	00 00       	nop
    33b4:	00 00       	nop
    33b6:	00 ff       	sbrs	r16, 0
    33b8:	ff ff       	.word	0xffff	; ????
    33ba:	07 07       	cpc	r16, r23
    33bc:	07 07       	cpc	r16, r23
    33be:	07 07       	cpc	r16, r23
    33c0:	07 07       	cpc	r16, r23
    33c2:	07 00       	.word	0x0007	; ????
    33c4:	00 00       	nop
    33c6:	00 00       	nop
    33c8:	00 1f       	adc	r16, r16
    33ca:	1f 1f       	adc	r17, r31
    33cc:	1c 1c       	adc	r1, r12
    33ce:	1c 1c       	adc	r1, r12
    33d0:	1c 1c       	adc	r1, r12
    33d2:	1c 1c       	adc	r1, r12
    33d4:	1c 1c       	adc	r1, r12
	...
    33ea:	00 00       	nop
    33ec:	00 c0       	rjmp	.+0      	; 0x33ee <__stack+0x2aef>
    33ee:	c0 c0       	rjmp	.+384    	; 0x3570 <__stack+0x2c71>
    33f0:	c0 c0       	rjmp	.+384    	; 0x3572 <__stack+0x2c73>
    33f2:	c0 c8       	rjmp	.-3712   	; 0x2574 <__stack+0x1c75>
    33f4:	cc ce       	rjmp	.-616    	; 0x318e <__stack+0x288f>
    33f6:	c7 c3       	rjmp	.+1934   	; 0x3b86 <__stack+0x3287>
    33f8:	c1 c0       	rjmp	.+386    	; 0x357c <__stack+0x2c7d>
    33fa:	00 00       	nop
    33fc:	00 00       	nop
    33fe:	00 ff       	sbrs	r16, 0
    3400:	ff ff       	.word	0xffff	; ????
    3402:	01 01       	movw	r0, r2
    3404:	01 01       	movw	r0, r2
    3406:	01 01       	movw	r0, r2
    3408:	01 01       	movw	r0, r2
    340a:	01 01       	movw	r0, r2
    340c:	00 00       	nop
    340e:	00 00       	nop
    3410:	00 ff       	sbrs	r16, 0
    3412:	ff ff       	.word	0xffff	; ????
    3414:	07 07       	cpc	r16, r23
    3416:	07 07       	cpc	r16, r23
    3418:	07 07       	cpc	r16, r23
    341a:	07 07       	cpc	r16, r23
    341c:	07 00       	.word	0x0007	; ????
    341e:	00 00       	nop
    3420:	00 00       	nop
    3422:	00 1f       	adc	r16, r16
    3424:	1f 1f       	adc	r17, r31
    3426:	1c 1c       	adc	r1, r12
    3428:	1c 1c       	adc	r1, r12
    342a:	1c 1c       	adc	r1, r12
    342c:	1c 1c       	adc	r1, r12
    342e:	1c 1c       	adc	r1, r12
	...
    3444:	00 00       	nop
    3446:	00 c8       	rjmp	.-4096   	; 0x2448 <__stack+0x1b49>
    3448:	cc cc       	rjmp	.-1640   	; 0x2de2 <__stack+0x24e3>
    344a:	ce c7       	rjmp	.+3996   	; 0x43e8 <__stack+0x3ae9>
    344c:	c3 c1       	rjmp	.+902    	; 0x37d4 <__stack+0x2ed5>
    344e:	c3 c7       	rjmp	.+3974   	; 0x43d6 <__stack+0x3ad7>
    3450:	ce cc       	rjmp	.-1636   	; 0x2dee <__stack+0x24ef>
    3452:	cc c8       	rjmp	.-3688   	; 0x25ec <__stack+0x1ced>
    3454:	00 00       	nop
    3456:	00 00       	nop
    3458:	00 ff       	sbrs	r16, 0
    345a:	ff ff       	.word	0xffff	; ????
    345c:	01 01       	movw	r0, r2
    345e:	01 01       	movw	r0, r2
    3460:	01 01       	movw	r0, r2
    3462:	01 01       	movw	r0, r2
    3464:	01 01       	movw	r0, r2
    3466:	00 00       	nop
    3468:	00 00       	nop
    346a:	00 ff       	sbrs	r16, 0
    346c:	ff ff       	.word	0xffff	; ????
    346e:	07 07       	cpc	r16, r23
    3470:	07 07       	cpc	r16, r23
    3472:	07 07       	cpc	r16, r23
    3474:	07 07       	cpc	r16, r23
    3476:	07 00       	.word	0x0007	; ????
    3478:	00 00       	nop
    347a:	00 00       	nop
    347c:	00 1f       	adc	r16, r16
    347e:	1f 1f       	adc	r17, r31
    3480:	1c 1c       	adc	r1, r12
    3482:	1c 1c       	adc	r1, r12
    3484:	1c 1c       	adc	r1, r12
    3486:	1c 1c       	adc	r1, r12
    3488:	1c 1c       	adc	r1, r12
	...
    349e:	00 00       	nop
    34a0:	00 c0       	rjmp	.+0      	; 0x34a2 <__stack+0x2ba3>
    34a2:	c0 ce       	rjmp	.-640    	; 0x3224 <__stack+0x2925>
    34a4:	ce ce       	rjmp	.-612    	; 0x3242 <__stack+0x2943>
    34a6:	c0 c0       	rjmp	.+384    	; 0x3628 <__stack+0x2d29>
    34a8:	c0 c0       	rjmp	.+384    	; 0x362a <__stack+0x2d2b>
    34aa:	ce ce       	rjmp	.-612    	; 0x3248 <__stack+0x2949>
    34ac:	ce c0       	rjmp	.+412    	; 0x364a <__stack+0x2d4b>
    34ae:	00 00       	nop
    34b0:	00 00       	nop
    34b2:	00 ff       	sbrs	r16, 0
    34b4:	ff ff       	.word	0xffff	; ????
    34b6:	01 01       	movw	r0, r2
    34b8:	01 01       	movw	r0, r2
    34ba:	01 01       	movw	r0, r2
    34bc:	01 01       	movw	r0, r2
    34be:	01 01       	movw	r0, r2
    34c0:	00 00       	nop
    34c2:	00 00       	nop
    34c4:	00 ff       	sbrs	r16, 0
    34c6:	ff ff       	.word	0xffff	; ????
    34c8:	07 07       	cpc	r16, r23
    34ca:	07 07       	cpc	r16, r23
    34cc:	07 07       	cpc	r16, r23
    34ce:	07 07       	cpc	r16, r23
    34d0:	07 00       	.word	0x0007	; ????
    34d2:	00 00       	nop
    34d4:	00 00       	nop
    34d6:	00 1f       	adc	r16, r16
    34d8:	1f 1f       	adc	r17, r31
    34da:	1c 1c       	adc	r1, r12
    34dc:	1c 1c       	adc	r1, r12
    34de:	1c 1c       	adc	r1, r12
    34e0:	1c 1c       	adc	r1, r12
    34e2:	1c 1c       	adc	r1, r12
	...
    34f8:	00 01       	movw	r0, r0
    34fa:	03 c7       	rjmp	.+3590   	; 0x4302 <__stack+0x3a03>
    34fc:	ce cc       	rjmp	.-1636   	; 0x2e9a <__stack+0x259b>
    34fe:	08 00       	.word	0x0008	; ????
    3500:	00 00       	nop
    3502:	00 00       	nop
    3504:	ff ff       	.word	0xffff	; ????
    3506:	ff 00       	.word	0x00ff	; ????
    3508:	00 00       	nop
    350a:	00 00       	nop
    350c:	00 ff       	sbrs	r16, 0
    350e:	ff ff       	.word	0xffff	; ????
    3510:	00 00       	nop
    3512:	00 00       	nop
    3514:	00 00       	nop
    3516:	1f 1f       	adc	r17, r31
    3518:	1f 00       	.word	0x001f	; ????
	...
    3526:	c0 c8       	rjmp	.-3712   	; 0x26a8 <__stack+0x1da9>
    3528:	cc 0e       	add	r12, r28
    352a:	07 03       	mulsu	r16, r23
    352c:	01 00       	.word	0x0001	; ????
    352e:	00 ff       	sbrs	r16, 0
    3530:	ff ff       	.word	0xffff	; ????
    3532:	00 00       	nop
    3534:	00 00       	nop
    3536:	00 00       	nop
    3538:	ff ff       	.word	0xffff	; ????
    353a:	ff 00       	.word	0x00ff	; ????
    353c:	00 00       	nop
    353e:	00 00       	nop
    3540:	00 1f       	adc	r16, r16
    3542:	1f 1f       	adc	r17, r31
	...
    3550:	00 00       	nop
    3552:	08 0c       	add	r0, r8
    3554:	0c 0e       	add	r0, r28
    3556:	07 c3       	rjmp	.+1550   	; 0x3b66 <__stack+0x3267>
    3558:	c1 c3       	rjmp	.+1922   	; 0x3cdc <__stack+0x33dd>
    355a:	07 0e       	add	r0, r23
    355c:	0c 0c       	add	r0, r12
    355e:	08 00       	.word	0x0008	; ????
    3560:	00 00       	nop
    3562:	00 00       	nop
    3564:	ff ff       	.word	0xffff	; ????
    3566:	ff 00       	.word	0x00ff	; ????
	...
    3570:	00 ff       	sbrs	r16, 0
    3572:	ff ff       	.word	0xffff	; ????
	...
    357c:	00 00       	nop
    357e:	1f 1f       	adc	r17, r31
    3580:	1f 00       	.word	0x001f	; ????
	...
    3592:	00 0e       	add	r0, r16
    3594:	0e 0e       	add	r0, r30
    3596:	c0 c0       	rjmp	.+384    	; 0x3718 <__stack+0x2e19>
    3598:	c0 00       	.word	0x00c0	; ????
    359a:	0e 0e       	add	r0, r30
    359c:	0e 00       	.word	0x000e	; ????
    359e:	00 00       	nop
    35a0:	ff ff       	.word	0xffff	; ????
    35a2:	ff 00       	.word	0x00ff	; ????
    35a4:	00 00       	nop
    35a6:	00 00       	nop
    35a8:	00 00       	nop
    35aa:	ff ff       	.word	0xffff	; ????
    35ac:	ff 00       	.word	0x00ff	; ????
    35ae:	00 00       	nop
    35b0:	00 00       	nop
    35b2:	00 00       	nop
    35b4:	1f 1f       	adc	r17, r31
    35b6:	1f 00       	.word	0x001f	; ????
	...
    35c8:	c0 c0       	rjmp	.+384    	; 0x374a <__stack+0x2e4b>
    35ca:	c0 c0       	rjmp	.+384    	; 0x374c <__stack+0x2e4d>
    35cc:	c0 c0       	rjmp	.+384    	; 0x374e <__stack+0x2e4f>
    35ce:	c0 c0       	rjmp	.+384    	; 0x3750 <__stack+0x2e51>
    35d0:	c0 c0       	rjmp	.+384    	; 0x3752 <__stack+0x2e53>
    35d2:	c0 80       	ld	r12, Z
    35d4:	80 00       	.word	0x0080	; ????
	...
    35de:	00 ff       	sbrs	r16, 0
    35e0:	ff ff       	.word	0xffff	; ????
    35e2:	01 01       	movw	r0, r2
    35e4:	01 01       	movw	r0, r2
    35e6:	01 01       	movw	r0, r2
    35e8:	01 03       	mulsu	r16, r17
    35ea:	03 07       	cpc	r16, r19
    35ec:	0f 3f       	cpi	r16, 0xFF	; 255
    35ee:	fe f8       	.word	0xf8fe	; ????
    35f0:	e0 00       	.word	0x00e0	; ????
    35f2:	00 07       	cpc	r16, r16
    35f4:	07 07       	cpc	r16, r23
    35f6:	ff ff       	.word	0xffff	; ????
    35f8:	ff 07       	cpc	r31, r31
    35fa:	07 07       	cpc	r16, r23
    35fc:	07 07       	cpc	r16, r23
    35fe:	00 00       	nop
    3600:	00 00       	nop
    3602:	00 80       	ld	r0, Z
    3604:	e0 ff       	sbrs	r30, 0
    3606:	ff 1f       	adc	r31, r31
    3608:	00 00       	nop
    360a:	00 00       	nop
    360c:	00 1f       	adc	r16, r16
    360e:	1f 1f       	adc	r17, r31
    3610:	1c 1c       	adc	r1, r12
    3612:	1c 1c       	adc	r1, r12
    3614:	1c 1c       	adc	r1, r12
    3616:	1c 0e       	add	r1, r28
    3618:	0e 0f       	add	r16, r30
    361a:	07 03       	mulsu	r16, r23
    361c:	01 00       	.word	0x0001	; ????
	...
    363a:	00 c0       	rjmp	.+0      	; 0x363c <__stack+0x2d3d>
    363c:	c0 c0       	rjmp	.+384    	; 0x37be <__stack+0x2ebf>
    363e:	ce 8f       	std	Y+30, r28	; 0x1e
    3640:	03 03       	mulsu	r16, r19
    3642:	03 07       	cpc	r16, r19
    3644:	0f 0e       	add	r0, r31
    3646:	0e 0e       	add	r0, r30
    3648:	07 03       	mulsu	r16, r23
    364a:	c0 c0       	rjmp	.+384    	; 0x37cc <__stack+0x2ecd>
    364c:	c0 00       	.word	0x00c0	; ????
    364e:	00 00       	nop
    3650:	00 00       	nop
    3652:	00 ff       	sbrs	r16, 0
    3654:	ff ff       	.word	0xffff	; ????
    3656:	03 0f       	add	r16, r19
    3658:	3f fc       	.word	0xfc3f	; ????
    365a:	f8 e0       	ldi	r31, 0x08	; 8
    365c:	80 00       	.word	0x0080	; ????
    365e:	00 00       	nop
    3660:	00 00       	nop
    3662:	ff ff       	.word	0xffff	; ????
    3664:	ff 00       	.word	0x00ff	; ????
    3666:	00 00       	nop
    3668:	00 00       	nop
    366a:	00 ff       	sbrs	r16, 0
    366c:	ff ff       	.word	0xffff	; ????
    366e:	00 00       	nop
    3670:	00 00       	nop
    3672:	01 07       	cpc	r16, r17
    3674:	1f 7e       	andi	r17, 0xEF	; 239
    3676:	fc f0       	brlt	.+62     	; 0x36b6 <__stack+0x2db7>
    3678:	c0 00       	.word	0x00c0	; ????
    367a:	ff ff       	.word	0xffff	; ????
    367c:	ff 00       	.word	0x00ff	; ????
    367e:	00 00       	nop
    3680:	00 00       	nop
    3682:	00 1f       	adc	r16, r16
    3684:	1f 1f       	adc	r17, r31
	...
    368e:	00 03       	mulsu	r16, r16
    3690:	0f 1f       	adc	r16, r31
    3692:	1f 1f       	adc	r17, r31
    3694:	1f 00       	.word	0x001f	; ????
	...
    36b6:	00 80       	ld	r0, Z
    36b8:	81 c3       	rjmp	.+1794   	; 0x3dbc <__stack+0x34bd>
    36ba:	c7 ce       	rjmp	.-626    	; 0x344a <__stack+0x2b4b>
    36bc:	cc c8       	rjmp	.-3688   	; 0x2856 <__stack+0x1f57>
    36be:	c0 c0       	rjmp	.+384    	; 0x3840 <__stack+0x2f41>
    36c0:	c0 80       	ld	r12, Z
    36c2:	80 00       	.word	0x0080	; ????
    36c4:	00 00       	nop
    36c6:	00 00       	nop
    36c8:	00 00       	nop
    36ca:	00 e0       	ldi	r16, 0x00	; 0
    36cc:	f8 fe       	.word	0xfef8	; ????
    36ce:	3f 0f       	add	r19, r31
    36d0:	07 03       	mulsu	r16, r23
    36d2:	01 01       	movw	r0, r2
    36d4:	01 01       	movw	r0, r2
    36d6:	01 01       	movw	r0, r2
    36d8:	01 03       	mulsu	r16, r17
    36da:	03 0f       	add	r16, r19
    36dc:	3f fe       	.word	0xfe3f	; ????
    36de:	fc e0       	ldi	r31, 0x0C	; 12
    36e0:	00 00       	nop
    36e2:	00 00       	nop
    36e4:	3f ff       	.word	0xff3f	; ????
    36e6:	ff e0       	ldi	r31, 0x0F	; 15
    36e8:	80 00       	.word	0x0080	; ????
	...
    36f2:	00 00       	nop
    36f4:	80 e0       	ldi	r24, 0x00	; 0
    36f6:	ff ff       	.word	0xffff	; ????
    36f8:	3f 00       	.word	0x003f	; ????
    36fa:	00 00       	nop
    36fc:	00 00       	nop
    36fe:	01 03       	mulsu	r16, r17
    3700:	07 0f       	add	r16, r23
    3702:	0e 1e       	adc	r0, r30
    3704:	1c 1c       	adc	r1, r12
    3706:	1c 1c       	adc	r1, r12
    3708:	1c 1c       	adc	r1, r12
    370a:	1c 0e       	add	r1, r28
    370c:	0f 07       	cpc	r16, r31
    370e:	07 03       	mulsu	r16, r23
	...
    3734:	80 80       	ld	r8, Z
    3736:	c0 c0       	rjmp	.+384    	; 0x38b8 <__stack+0x2fb9>
    3738:	c8 cc       	rjmp	.-1648   	; 0x30ca <__stack+0x27cb>
    373a:	ce c7       	rjmp	.+3996   	; 0x46d8 <__stack+0x3dd9>
    373c:	c3 c1       	rjmp	.+902    	; 0x3ac4 <__stack+0x31c5>
    373e:	80 80       	ld	r8, Z
	...
    3748:	e0 f8       	bld	r14, 0
    374a:	fe 3f       	cpi	r31, 0xFE	; 254
    374c:	0f 07       	cpc	r16, r31
    374e:	03 01       	movw	r0, r6
    3750:	01 01       	movw	r0, r2
    3752:	01 01       	movw	r0, r2
    3754:	01 01       	movw	r0, r2
    3756:	03 03       	mulsu	r16, r19
    3758:	0f 3f       	cpi	r16, 0xFF	; 255
    375a:	fe fc       	.word	0xfcfe	; ????
    375c:	e0 00       	.word	0x00e0	; ????
    375e:	00 00       	nop
    3760:	00 3f       	cpi	r16, 0xF0	; 240
    3762:	ff ff       	.word	0xffff	; ????
    3764:	e0 80       	ld	r14, Z
	...
    376e:	00 00       	nop
    3770:	00 80       	ld	r0, Z
    3772:	e0 ff       	sbrs	r30, 0
    3774:	ff 3f       	cpi	r31, 0xFF	; 255
    3776:	00 00       	nop
    3778:	00 00       	nop
    377a:	00 01       	movw	r0, r0
    377c:	03 07       	cpc	r16, r19
    377e:	0f 0e       	add	r0, r31
    3780:	1e 1c       	adc	r1, r14
    3782:	1c 1c       	adc	r1, r12
    3784:	1c 1c       	adc	r1, r12
    3786:	1c 1c       	adc	r1, r12
    3788:	0e 0f       	add	r16, r30
    378a:	07 07       	cpc	r16, r23
    378c:	03 00       	.word	0x0003	; ????
	...
    37ae:	00 00       	nop
    37b0:	08 8c       	ldd	r0, Y+24	; 0x18
    37b2:	8c ce       	rjmp	.-744    	; 0x34cc <__stack+0x2bcd>
    37b4:	c7 c3       	rjmp	.+1934   	; 0x3f44 <__stack+0x3645>
    37b6:	c1 c3       	rjmp	.+1922   	; 0x3f3a <__stack+0x363b>
    37b8:	c7 ce       	rjmp	.-626    	; 0x3548 <__stack+0x2c49>
    37ba:	cc 8c       	ldd	r12, Y+28	; 0x1c
    37bc:	88 00       	.word	0x0088	; ????
    37be:	00 00       	nop
    37c0:	00 00       	nop
    37c2:	00 00       	nop
    37c4:	00 e0       	ldi	r16, 0x00	; 0
    37c6:	f8 fe       	.word	0xfef8	; ????
    37c8:	3f 0f       	add	r19, r31
    37ca:	07 03       	mulsu	r16, r23
    37cc:	01 01       	movw	r0, r2
    37ce:	01 01       	movw	r0, r2
    37d0:	01 01       	movw	r0, r2
    37d2:	01 03       	mulsu	r16, r17
    37d4:	03 0f       	add	r16, r19
    37d6:	3f fe       	.word	0xfe3f	; ????
    37d8:	fc e0       	ldi	r31, 0x0C	; 12
    37da:	00 00       	nop
    37dc:	00 00       	nop
    37de:	3f ff       	.word	0xff3f	; ????
    37e0:	ff e0       	ldi	r31, 0x0F	; 15
    37e2:	80 00       	.word	0x0080	; ????
	...
    37ec:	00 00       	nop
    37ee:	80 e0       	ldi	r24, 0x00	; 0
    37f0:	ff ff       	.word	0xffff	; ????
    37f2:	3f 00       	.word	0x003f	; ????
    37f4:	00 00       	nop
    37f6:	00 00       	nop
    37f8:	01 03       	mulsu	r16, r17
    37fa:	07 0f       	add	r16, r23
    37fc:	0e 1e       	adc	r0, r30
    37fe:	1c 1c       	adc	r1, r12
    3800:	1c 1c       	adc	r1, r12
    3802:	1c 1c       	adc	r1, r12
    3804:	1c 0e       	add	r1, r28
    3806:	0f 07       	cpc	r16, r31
    3808:	07 03       	mulsu	r16, r23
	...
    382a:	00 00       	nop
    382c:	00 0e       	add	r0, r16
    382e:	8f 83       	std	Y+7, r24	; 0x07
    3830:	c3 c3       	rjmp	.+1926   	; 0x3fb8 <__stack+0x36b9>
    3832:	c7 cf       	rjmp	.-114    	; 0x37c2 <__stack+0x2ec3>
    3834:	ce ce       	rjmp	.-612    	; 0x35d2 <__stack+0x2cd3>
    3836:	ce c7       	rjmp	.+3996   	; 0x47d4 <__stack+0x3ed5>
    3838:	83 80       	ldd	r8, Z+3	; 0x03
	...
    3842:	e0 f8       	bld	r14, 0
    3844:	fe 3f       	cpi	r31, 0xFE	; 254
    3846:	0f 07       	cpc	r16, r31
    3848:	03 01       	movw	r0, r6
    384a:	01 01       	movw	r0, r2
    384c:	01 01       	movw	r0, r2
    384e:	01 01       	movw	r0, r2
    3850:	03 03       	mulsu	r16, r19
    3852:	0f 3f       	cpi	r16, 0xFF	; 255
    3854:	fe fc       	.word	0xfcfe	; ????
    3856:	e0 00       	.word	0x00e0	; ????
    3858:	00 00       	nop
    385a:	00 3f       	cpi	r16, 0xF0	; 240
    385c:	ff ff       	.word	0xffff	; ????
    385e:	e0 80       	ld	r14, Z
	...
    3868:	00 00       	nop
    386a:	00 80       	ld	r0, Z
    386c:	e0 ff       	sbrs	r30, 0
    386e:	ff 3f       	cpi	r31, 0xFF	; 255
    3870:	00 00       	nop
    3872:	00 00       	nop
    3874:	00 01       	movw	r0, r0
    3876:	03 07       	cpc	r16, r19
    3878:	0f 0e       	add	r0, r31
    387a:	1e 1c       	adc	r1, r14
    387c:	1c 1c       	adc	r1, r12
    387e:	1c 1c       	adc	r1, r12
    3880:	1c 1c       	adc	r1, r12
    3882:	0e 0f       	add	r16, r30
    3884:	07 07       	cpc	r16, r23
    3886:	03 00       	.word	0x0003	; ????
	...
    38a8:	00 00       	nop
    38aa:	00 8e       	std	Z+24, r0	; 0x18
    38ac:	8e ce       	rjmp	.-740    	; 0x35ca <__stack+0x2ccb>
    38ae:	c0 c0       	rjmp	.+384    	; 0x3a30 <__stack+0x3131>
    38b0:	c0 c0       	rjmp	.+384    	; 0x3a32 <__stack+0x3133>
    38b2:	ce ce       	rjmp	.-612    	; 0x3650 <__stack+0x2d51>
    38b4:	ce 80       	ldd	r12, Y+6	; 0x06
    38b6:	80 00       	.word	0x0080	; ????
    38b8:	00 00       	nop
    38ba:	00 00       	nop
    38bc:	00 00       	nop
    38be:	00 e0       	ldi	r16, 0x00	; 0
    38c0:	f8 fe       	.word	0xfef8	; ????
    38c2:	3f 0f       	add	r19, r31
    38c4:	07 03       	mulsu	r16, r23
    38c6:	01 01       	movw	r0, r2
    38c8:	01 01       	movw	r0, r2
    38ca:	01 01       	movw	r0, r2
    38cc:	01 03       	mulsu	r16, r17
    38ce:	03 0f       	add	r16, r19
    38d0:	3f fe       	.word	0xfe3f	; ????
    38d2:	fc e0       	ldi	r31, 0x0C	; 12
    38d4:	00 00       	nop
    38d6:	00 00       	nop
    38d8:	3f ff       	.word	0xff3f	; ????
    38da:	ff e0       	ldi	r31, 0x0F	; 15
    38dc:	80 00       	.word	0x0080	; ????
	...
    38e6:	00 00       	nop
    38e8:	80 e0       	ldi	r24, 0x00	; 0
    38ea:	ff ff       	.word	0xffff	; ????
    38ec:	3f 00       	.word	0x003f	; ????
    38ee:	00 00       	nop
    38f0:	00 00       	nop
    38f2:	01 03       	mulsu	r16, r17
    38f4:	07 0f       	add	r16, r23
    38f6:	0e 1e       	adc	r0, r30
    38f8:	1c 1c       	adc	r1, r12
    38fa:	1c 1c       	adc	r1, r12
    38fc:	1c 1c       	adc	r1, r12
    38fe:	1c 0e       	add	r1, r28
    3900:	0f 07       	cpc	r16, r31
    3902:	07 03       	mulsu	r16, r23
	...
    3934:	00 10       	cpse	r0, r0
    3936:	38 70       	andi	r19, 0x08	; 8
    3938:	e0 c0       	rjmp	.+448    	; 0x3afa <__stack+0x31fb>
    393a:	80 00       	.word	0x0080	; ????
    393c:	00 00       	nop
    393e:	80 c0       	rjmp	.+256    	; 0x3a40 <__stack+0x3141>
    3940:	e0 70       	andi	r30, 0x00	; 0
    3942:	38 10       	cpse	r3, r8
    3944:	00 00       	nop
    3946:	00 00       	nop
    3948:	80 c0       	rjmp	.+256    	; 0x3a4a <__stack+0x314b>
    394a:	e0 71       	andi	r30, 0x10	; 16
    394c:	3b 1f       	adc	r19, r27
    394e:	0e 1f       	adc	r16, r30
    3950:	3b 71       	andi	r19, 0x1B	; 27
    3952:	e0 c0       	rjmp	.+448    	; 0x3b14 <__stack+0x3215>
    3954:	80 00       	.word	0x0080	; ????
    3956:	00 00       	nop
    3958:	00 01       	movw	r0, r0
    395a:	03 01       	movw	r0, r6
	...
    3964:	00 01       	movw	r0, r0
    3966:	03 01       	movw	r0, r6
	...
    3980:	00 80       	ld	r0, Z
    3982:	80 80       	ld	r8, Z
    3984:	c0 c0       	rjmp	.+384    	; 0x3b06 <__stack+0x3207>
    3986:	c0 c0       	rjmp	.+384    	; 0x3b08 <__stack+0x3209>
    3988:	c0 c0       	rjmp	.+384    	; 0x3b0a <__stack+0x320b>
    398a:	c0 c0       	rjmp	.+384    	; 0x3b0c <__stack+0x320d>
    398c:	f0 fc       	sbrc	r15, 0
    398e:	3c 0c       	add	r3, r12
    3990:	00 00       	nop
    3992:	00 00       	nop
    3994:	00 00       	nop
    3996:	e0 fc       	sbrc	r14, 0
    3998:	fe 3f       	cpi	r31, 0xFE	; 254
    399a:	0f 07       	cpc	r16, r31
    399c:	03 01       	movw	r0, r6
    399e:	01 01       	movw	r0, r2
    39a0:	c1 e1       	ldi	r28, 0x11	; 17
    39a2:	f9 3f       	cpi	r31, 0xF9	; 249
    39a4:	1f 07       	cpc	r17, r31
    39a6:	0f ff       	.word	0xff0f	; ????
    39a8:	fe f8       	.word	0xf8fe	; ????
    39aa:	c0 00       	.word	0x00c0	; ????
    39ac:	00 00       	nop
    39ae:	00 7f       	andi	r16, 0xF0	; 240
    39b0:	ff ff       	.word	0xffff	; ????
    39b2:	e0 80       	ld	r14, Z
    39b4:	00 c0       	rjmp	.+0      	; 0x39b6 <__stack+0x30b7>
    39b6:	f0 7c       	andi	r31, 0xC0	; 192
    39b8:	3f 0f       	add	r19, r31
    39ba:	03 00       	.word	0x0003	; ????
    39bc:	00 00       	nop
    39be:	00 80       	ld	r0, Z
    39c0:	fc ff       	.word	0xfffc	; ????
    39c2:	ff 0f       	add	r31, r31
    39c4:	00 00       	nop
    39c6:	00 00       	nop
    39c8:	00 01       	movw	r0, r0
    39ca:	c3 f7       	brvc	.-16     	; 0x39bc <__stack+0x30bd>
    39cc:	ff 3f       	cpi	r31, 0xFF	; 255
    39ce:	0f 1d       	adc	r16, r15
    39d0:	1c 1c       	adc	r1, r12
    39d2:	1c 1c       	adc	r1, r12
    39d4:	1c 1e       	adc	r1, r28
    39d6:	0e 0f       	add	r16, r30
    39d8:	07 03       	mulsu	r16, r23
    39da:	01 00       	.word	0x0001	; ????
    39dc:	00 00       	nop
    39de:	00 00       	nop
    39e0:	00 00       	nop
    39e2:	01 01       	movw	r0, r2
    39e4:	01 00       	.word	0x0001	; ????
	...
    39fa:	00 c0       	rjmp	.+0      	; 0x39fc <__stack+0x30fd>
    39fc:	c0 c0       	rjmp	.+384    	; 0x3b7e <__stack+0x327f>
    39fe:	00 00       	nop
    3a00:	01 03       	mulsu	r16, r17
    3a02:	07 0e       	add	r0, r23
    3a04:	0c 08       	sbc	r0, r12
    3a06:	00 00       	nop
    3a08:	00 00       	nop
    3a0a:	c0 c0       	rjmp	.+384    	; 0x3b8c <__stack+0x328d>
    3a0c:	c0 00       	.word	0x00c0	; ????
    3a0e:	00 00       	nop
    3a10:	00 00       	nop
    3a12:	00 ff       	sbrs	r16, 0
    3a14:	ff ff       	.word	0xffff	; ????
	...
    3a22:	ff ff       	.word	0xffff	; ????
    3a24:	ff 00       	.word	0x00ff	; ????
    3a26:	00 00       	nop
    3a28:	00 00       	nop
    3a2a:	00 ff       	sbrs	r16, 0
    3a2c:	ff ff       	.word	0xffff	; ????
    3a2e:	80 00       	.word	0x0080	; ????
	...
    3a38:	00 80       	ld	r0, Z
    3a3a:	ff ff       	.word	0xffff	; ????
    3a3c:	ff 00       	.word	0x00ff	; ????
    3a3e:	00 00       	nop
    3a40:	00 00       	nop
    3a42:	00 00       	nop
    3a44:	03 07       	cpc	r16, r19
    3a46:	0f 0f       	add	r16, r31
    3a48:	1e 1c       	adc	r1, r14
    3a4a:	1c 1c       	adc	r1, r12
    3a4c:	1c 1c       	adc	r1, r12
    3a4e:	1c 0e       	add	r1, r28
    3a50:	0f 0f       	add	r16, r31
    3a52:	07 03       	mulsu	r16, r23
	...
    3a70:	00 00       	nop
    3a72:	00 c0       	rjmp	.+0      	; 0x3a74 <__stack+0x3175>
    3a74:	c0 c0       	rjmp	.+384    	; 0x3bf6 <__stack+0x32f7>
    3a76:	00 00       	nop
    3a78:	00 00       	nop
    3a7a:	00 08       	sbc	r0, r0
    3a7c:	0c 0e       	add	r0, r28
    3a7e:	07 03       	mulsu	r16, r23
    3a80:	01 00       	.word	0x0001	; ????
    3a82:	c0 c0       	rjmp	.+384    	; 0x3c04 <__stack+0x3305>
    3a84:	c0 00       	.word	0x00c0	; ????
    3a86:	00 00       	nop
    3a88:	00 00       	nop
    3a8a:	00 ff       	sbrs	r16, 0
    3a8c:	ff ff       	.word	0xffff	; ????
	...
    3a9a:	ff ff       	.word	0xffff	; ????
    3a9c:	ff 00       	.word	0x00ff	; ????
    3a9e:	00 00       	nop
    3aa0:	00 00       	nop
    3aa2:	00 ff       	sbrs	r16, 0
    3aa4:	ff ff       	.word	0xffff	; ????
    3aa6:	80 00       	.word	0x0080	; ????
	...
    3ab0:	00 80       	ld	r0, Z
    3ab2:	ff ff       	.word	0xffff	; ????
    3ab4:	ff 00       	.word	0x00ff	; ????
    3ab6:	00 00       	nop
    3ab8:	00 00       	nop
    3aba:	00 00       	nop
    3abc:	03 07       	cpc	r16, r19
    3abe:	0f 0f       	add	r16, r31
    3ac0:	1e 1c       	adc	r1, r14
    3ac2:	1c 1c       	adc	r1, r12
    3ac4:	1c 1c       	adc	r1, r12
    3ac6:	1c 0e       	add	r1, r28
    3ac8:	0f 0f       	add	r16, r31
    3aca:	07 03       	mulsu	r16, r23
	...
    3ae8:	00 00       	nop
    3aea:	00 c0       	rjmp	.+0      	; 0x3aec <__stack+0x31ed>
    3aec:	c0 c0       	rjmp	.+384    	; 0x3c6e <__stack+0x336f>
    3aee:	08 0c       	add	r0, r8
    3af0:	0c 0e       	add	r0, r28
    3af2:	07 03       	mulsu	r16, r23
    3af4:	01 03       	mulsu	r16, r17
    3af6:	07 0e       	add	r0, r23
    3af8:	0c 0c       	add	r0, r12
    3afa:	c8 c0       	rjmp	.+400    	; 0x3c8c <__stack+0x338d>
    3afc:	c0 00       	.word	0x00c0	; ????
    3afe:	00 00       	nop
    3b00:	00 00       	nop
    3b02:	00 ff       	sbrs	r16, 0
    3b04:	ff ff       	.word	0xffff	; ????
	...
    3b12:	ff ff       	.word	0xffff	; ????
    3b14:	ff 00       	.word	0x00ff	; ????
    3b16:	00 00       	nop
    3b18:	00 00       	nop
    3b1a:	00 ff       	sbrs	r16, 0
    3b1c:	ff ff       	.word	0xffff	; ????
    3b1e:	80 00       	.word	0x0080	; ????
	...
    3b28:	00 80       	ld	r0, Z
    3b2a:	ff ff       	.word	0xffff	; ????
    3b2c:	ff 00       	.word	0x00ff	; ????
    3b2e:	00 00       	nop
    3b30:	00 00       	nop
    3b32:	00 00       	nop
    3b34:	03 07       	cpc	r16, r19
    3b36:	0f 0f       	add	r16, r31
    3b38:	1e 1c       	adc	r1, r14
    3b3a:	1c 1c       	adc	r1, r12
    3b3c:	1c 1c       	adc	r1, r12
    3b3e:	1c 0e       	add	r1, r28
    3b40:	0f 0f       	add	r16, r31
    3b42:	07 03       	mulsu	r16, r23
	...
    3b60:	00 00       	nop
    3b62:	00 c0       	rjmp	.+0      	; 0x3b64 <__stack+0x3265>
    3b64:	c0 c0       	rjmp	.+384    	; 0x3ce6 <__stack+0x33e7>
    3b66:	00 0e       	add	r0, r16
    3b68:	0e 0e       	add	r0, r30
    3b6a:	00 00       	nop
    3b6c:	00 00       	nop
    3b6e:	0e 0e       	add	r0, r30
    3b70:	0e 00       	.word	0x000e	; ????
    3b72:	c0 c0       	rjmp	.+384    	; 0x3cf4 <__stack+0x33f5>
    3b74:	c0 00       	.word	0x00c0	; ????
    3b76:	00 00       	nop
    3b78:	00 00       	nop
    3b7a:	00 ff       	sbrs	r16, 0
    3b7c:	ff ff       	.word	0xffff	; ????
	...
    3b8a:	ff ff       	.word	0xffff	; ????
    3b8c:	ff 00       	.word	0x00ff	; ????
    3b8e:	00 00       	nop
    3b90:	00 00       	nop
    3b92:	00 ff       	sbrs	r16, 0
    3b94:	ff ff       	.word	0xffff	; ????
    3b96:	80 00       	.word	0x0080	; ????
	...
    3ba0:	00 80       	ld	r0, Z
    3ba2:	ff ff       	.word	0xffff	; ????
    3ba4:	ff 00       	.word	0x00ff	; ????
    3ba6:	00 00       	nop
    3ba8:	00 00       	nop
    3baa:	00 00       	nop
    3bac:	03 07       	cpc	r16, r19
    3bae:	0f 0f       	add	r16, r31
    3bb0:	1e 1c       	adc	r1, r14
    3bb2:	1c 1c       	adc	r1, r12
    3bb4:	1c 1c       	adc	r1, r12
    3bb6:	1c 0e       	add	r1, r28
    3bb8:	0f 0f       	add	r16, r31
    3bba:	07 03       	mulsu	r16, r23
	...
    3bd8:	40 c0       	rjmp	.+128    	; 0x3c5a <__stack+0x335b>
    3bda:	c0 c0       	rjmp	.+384    	; 0x3d5c <__stack+0x345d>
    3bdc:	00 00       	nop
    3bde:	00 00       	nop
    3be0:	00 08       	sbc	r0, r0
    3be2:	0c 0e       	add	r0, r28
    3be4:	07 83       	std	Z+7, r16	; 0x07
    3be6:	c1 c0       	rjmp	.+386    	; 0x3d6a <__stack+0x346b>
    3be8:	40 00       	.word	0x0040	; ????
    3bea:	00 01       	movw	r0, r0
    3bec:	07 1f       	adc	r16, r23
    3bee:	7f fc       	.word	0xfc7f	; ????
    3bf0:	e0 80       	ld	r14, Z
    3bf2:	00 80       	ld	r0, Z
    3bf4:	e0 f8       	bld	r14, 0
    3bf6:	7e 1f       	adc	r23, r30
    3bf8:	07 01       	movw	r0, r14
    3bfa:	00 00       	nop
    3bfc:	00 00       	nop
    3bfe:	00 00       	nop
    3c00:	00 01       	movw	r0, r0
    3c02:	07 ff       	sbrs	r16, 7
    3c04:	fe ff       	.word	0xfffe	; ????
    3c06:	07 01       	movw	r0, r14
	...
    3c14:	00 1f       	adc	r16, r16
    3c16:	1f 1f       	adc	r17, r31
	...
    3c34:	00 c0       	rjmp	.+0      	; 0x3c36 <__stack+0x3337>
    3c36:	c0 c0       	rjmp	.+384    	; 0x3db8 <__stack+0x34b9>
	...
    3c48:	ff ff       	.word	0xffff	; ????
    3c4a:	ff 0e       	add	r15, r31
    3c4c:	0e 0e       	add	r0, r30
    3c4e:	0e 0e       	add	r0, r30
    3c50:	0e 1e       	adc	r0, r30
    3c52:	3c fc       	.word	0xfc3c	; ????
    3c54:	f8 e0       	ldi	r31, 0x08	; 8
    3c56:	00 00       	nop
    3c58:	00 00       	nop
    3c5a:	00 ff       	sbrs	r16, 0
    3c5c:	ff ff       	.word	0xffff	; ????
    3c5e:	e0 e0       	ldi	r30, 0x00	; 0
    3c60:	e0 e0       	ldi	r30, 0x00	; 0
    3c62:	e0 e0       	ldi	r30, 0x00	; 0
    3c64:	70 78       	andi	r23, 0x80	; 128
    3c66:	3f 1f       	adc	r19, r31
    3c68:	07 00       	.word	0x0007	; ????
    3c6a:	00 00       	nop
    3c6c:	00 00       	nop
    3c6e:	1f 1f       	adc	r17, r31
    3c70:	1f 00       	.word	0x001f	; ????
	...
    3c92:	00 00       	nop
    3c94:	00 c0       	rjmp	.+0      	; 0x3c96 <__stack+0x3397>
    3c96:	e0 e0       	ldi	r30, 0x00	; 0
    3c98:	f0 70       	andi	r31, 0x00	; 0
    3c9a:	70 70       	andi	r23, 0x00	; 0
    3c9c:	70 f0       	brcs	.+28     	; 0x3cba <__stack+0x33bb>
    3c9e:	e0 c0       	rjmp	.+448    	; 0x3e60 <__stack+0x3561>
    3ca0:	80 00       	.word	0x0080	; ????
    3ca2:	00 00       	nop
    3ca4:	00 00       	nop
    3ca6:	00 00       	nop
    3ca8:	ff ff       	.word	0xffff	; ????
    3caa:	ff 01       	movw	r30, r30
    3cac:	00 00       	nop
    3cae:	c0 e0       	ldi	r28, 0x00	; 0
    3cb0:	f0 70       	andi	r31, 0x00	; 0
    3cb2:	3f 3f       	cpi	r19, 0xFF	; 255
    3cb4:	1f 00       	.word	0x001f	; ????
    3cb6:	00 00       	nop
    3cb8:	00 00       	nop
    3cba:	00 00       	nop
    3cbc:	ff ff       	.word	0xffff	; ????
    3cbe:	ff 00       	.word	0x00ff	; ????
    3cc0:	00 00       	nop
    3cc2:	03 0f       	add	r16, r19
    3cc4:	1f 1c       	adc	r1, r15
    3cc6:	3c 78       	andi	r19, 0x8C	; 140
    3cc8:	f0 e0       	ldi	r31, 0x00	; 0
    3cca:	c0 00       	.word	0x00c0	; ????
    3ccc:	00 00       	nop
    3cce:	00 00       	nop
    3cd0:	1f 1f       	adc	r17, r31
    3cd2:	1f 00       	.word	0x001f	; ????
    3cd4:	00 00       	nop
    3cd6:	0e 1c       	adc	r0, r14
    3cd8:	1c 1c       	adc	r1, r12
    3cda:	1c 1e       	adc	r1, r28
    3cdc:	0f 0f       	add	r16, r31
    3cde:	03 00       	.word	0x0003	; ????
	...
    3cf8:	00 00       	nop
    3cfa:	18 38       	cpi	r17, 0x88	; 136
    3cfc:	78 f0       	brcs	.+30     	; 0x3d1c <__stack+0x341d>
    3cfe:	c0 80       	ld	r12, Z
	...
    3d08:	00 00       	nop
    3d0a:	e0 e0       	ldi	r30, 0x00	; 0
    3d0c:	70 70       	andi	r23, 0x00	; 0
    3d0e:	70 70       	andi	r23, 0x00	; 0
    3d10:	71 71       	andi	r23, 0x11	; 17
    3d12:	f0 e0       	ldi	r31, 0x00	; 0
    3d14:	e0 80       	ld	r14, Z
    3d16:	00 00       	nop
    3d18:	00 00       	nop
    3d1a:	00 c0       	rjmp	.+0      	; 0x3d1c <__stack+0x341d>
    3d1c:	e0 f0       	brcs	.+56     	; 0x3d56 <__stack+0x3457>
    3d1e:	70 38       	cpi	r23, 0x80	; 128
    3d20:	38 38       	cpi	r19, 0x88	; 136
    3d22:	38 38       	cpi	r19, 0x88	; 136
    3d24:	38 ff       	.word	0xff38	; ????
    3d26:	ff ff       	.word	0xffff	; ????
    3d28:	00 00       	nop
    3d2a:	00 00       	nop
    3d2c:	00 03       	mulsu	r16, r16
    3d2e:	0f 0f       	add	r16, r31
    3d30:	1e 1c       	adc	r1, r14
    3d32:	1c 1c       	adc	r1, r12
    3d34:	1c 0e       	add	r1, r28
    3d36:	0e 1f       	adc	r16, r30
    3d38:	1f 1f       	adc	r17, r31
	...
    3d56:	00 80       	ld	r0, Z
    3d58:	c0 f0       	brcs	.+48     	; 0x3d8a <__stack+0x348b>
    3d5a:	78 38       	cpi	r23, 0x88	; 136
    3d5c:	18 00       	.word	0x0018	; ????
    3d5e:	00 00       	nop
    3d60:	00 00       	nop
    3d62:	00 00       	nop
    3d64:	e0 e0       	ldi	r30, 0x00	; 0
    3d66:	70 70       	andi	r23, 0x00	; 0
    3d68:	70 71       	andi	r23, 0x10	; 16
    3d6a:	71 70       	andi	r23, 0x01	; 1
    3d6c:	f0 e0       	ldi	r31, 0x00	; 0
    3d6e:	e0 80       	ld	r14, Z
    3d70:	00 00       	nop
    3d72:	00 00       	nop
    3d74:	00 c0       	rjmp	.+0      	; 0x3d76 <__stack+0x3477>
    3d76:	e0 f0       	brcs	.+56     	; 0x3db0 <__stack+0x34b1>
    3d78:	70 38       	cpi	r23, 0x80	; 128
    3d7a:	38 38       	cpi	r19, 0x88	; 136
    3d7c:	38 38       	cpi	r19, 0x88	; 136
    3d7e:	38 ff       	.word	0xff38	; ????
    3d80:	ff ff       	.word	0xffff	; ????
    3d82:	00 00       	nop
    3d84:	00 00       	nop
    3d86:	00 03       	mulsu	r16, r16
    3d88:	0f 0f       	add	r16, r31
    3d8a:	1e 1c       	adc	r1, r14
    3d8c:	1c 1c       	adc	r1, r12
    3d8e:	1c 0e       	add	r1, r28
    3d90:	0e 1f       	adc	r16, r30
    3d92:	1f 1f       	adc	r17, r31
	...
    3dac:	00 00       	nop
    3dae:	80 e0       	ldi	r24, 0x00	; 0
    3db0:	70 38       	cpi	r23, 0x80	; 128
    3db2:	18 38       	cpi	r17, 0x88	; 136
    3db4:	70 e0       	ldi	r23, 0x00	; 0
    3db6:	80 00       	.word	0x0080	; ????
    3db8:	00 00       	nop
    3dba:	00 00       	nop
    3dbc:	00 00       	nop
    3dbe:	e0 e1       	ldi	r30, 0x10	; 16
    3dc0:	71 70       	andi	r23, 0x01	; 1
    3dc2:	70 70       	andi	r23, 0x00	; 0
    3dc4:	70 70       	andi	r23, 0x00	; 0
    3dc6:	f0 e0       	ldi	r31, 0x00	; 0
    3dc8:	e1 81       	ldd	r30, Z+1	; 0x01
    3dca:	00 00       	nop
    3dcc:	00 00       	nop
    3dce:	00 c0       	rjmp	.+0      	; 0x3dd0 <__stack+0x34d1>
    3dd0:	e0 f0       	brcs	.+56     	; 0x3e0a <__stack+0x350b>
    3dd2:	70 38       	cpi	r23, 0x80	; 128
    3dd4:	38 38       	cpi	r19, 0x88	; 136
    3dd6:	38 38       	cpi	r19, 0x88	; 136
    3dd8:	38 ff       	.word	0xff38	; ????
    3dda:	ff ff       	.word	0xffff	; ????
    3ddc:	00 00       	nop
    3dde:	00 00       	nop
    3de0:	00 03       	mulsu	r16, r16
    3de2:	0f 0f       	add	r16, r31
    3de4:	1e 1c       	adc	r1, r14
    3de6:	1c 1c       	adc	r1, r12
    3de8:	1c 0e       	add	r1, r28
    3dea:	0e 1f       	adc	r16, r30
    3dec:	1f 1f       	adc	r17, r31
	...
    3e06:	c0 e0       	ldi	r28, 0x00	; 0
    3e08:	70 70       	andi	r23, 0x00	; 0
    3e0a:	70 f0       	brcs	.+28     	; 0x3e28 <__stack+0x3529>
    3e0c:	e0 c0       	rjmp	.+448    	; 0x3fce <__stack+0x36cf>
    3e0e:	c0 c0       	rjmp	.+384    	; 0x3f90 <__stack+0x3691>
    3e10:	f0 70       	andi	r31, 0x00	; 0
    3e12:	00 00       	nop
    3e14:	00 00       	nop
    3e16:	00 00       	nop
    3e18:	e1 e1       	ldi	r30, 0x11	; 17
    3e1a:	70 70       	andi	r23, 0x00	; 0
    3e1c:	70 70       	andi	r23, 0x00	; 0
    3e1e:	71 71       	andi	r23, 0x11	; 17
    3e20:	f1 e1       	ldi	r31, 0x11	; 17
    3e22:	e0 80       	ld	r14, Z
    3e24:	00 00       	nop
    3e26:	00 00       	nop
    3e28:	00 c0       	rjmp	.+0      	; 0x3e2a <__stack+0x352b>
    3e2a:	e0 f0       	brcs	.+56     	; 0x3e64 <__stack+0x3565>
    3e2c:	70 38       	cpi	r23, 0x80	; 128
    3e2e:	38 38       	cpi	r19, 0x88	; 136
    3e30:	38 38       	cpi	r19, 0x88	; 136
    3e32:	38 ff       	.word	0xff38	; ????
    3e34:	ff ff       	.word	0xffff	; ????
    3e36:	00 00       	nop
    3e38:	00 00       	nop
    3e3a:	00 03       	mulsu	r16, r16
    3e3c:	0f 0f       	add	r16, r31
    3e3e:	1e 1c       	adc	r1, r14
    3e40:	1c 1c       	adc	r1, r12
    3e42:	1c 0e       	add	r1, r28
    3e44:	0e 1f       	adc	r16, r30
    3e46:	1f 1f       	adc	r17, r31
	...
    3e60:	00 00       	nop
    3e62:	c0 c0       	rjmp	.+384    	; 0x3fe4 <__stack+0x36e5>
    3e64:	c0 00       	.word	0x00c0	; ????
    3e66:	00 00       	nop
    3e68:	c0 c0       	rjmp	.+384    	; 0x3fea <__stack+0x36eb>
    3e6a:	c0 00       	.word	0x00c0	; ????
    3e6c:	00 00       	nop
    3e6e:	00 00       	nop
    3e70:	00 00       	nop
    3e72:	e0 e0       	ldi	r30, 0x00	; 0
    3e74:	71 71       	andi	r23, 0x11	; 17
    3e76:	71 70       	andi	r23, 0x01	; 1
    3e78:	70 70       	andi	r23, 0x00	; 0
    3e7a:	f1 e1       	ldi	r31, 0x11	; 17
    3e7c:	e1 80       	ldd	r14, Z+1	; 0x01
    3e7e:	00 00       	nop
    3e80:	00 00       	nop
    3e82:	00 c0       	rjmp	.+0      	; 0x3e84 <__stack+0x3585>
    3e84:	e0 f0       	brcs	.+56     	; 0x3ebe <__stack+0x35bf>
    3e86:	70 38       	cpi	r23, 0x80	; 128
    3e88:	38 38       	cpi	r19, 0x88	; 136
    3e8a:	38 38       	cpi	r19, 0x88	; 136
    3e8c:	38 ff       	.word	0xff38	; ????
    3e8e:	ff ff       	.word	0xffff	; ????
    3e90:	00 00       	nop
    3e92:	00 00       	nop
    3e94:	00 03       	mulsu	r16, r16
    3e96:	0f 0f       	add	r16, r31
    3e98:	1e 1c       	adc	r1, r14
    3e9a:	1c 1c       	adc	r1, r12
    3e9c:	1c 0e       	add	r1, r28
    3e9e:	0e 1f       	adc	r16, r30
    3ea0:	1f 1f       	adc	r17, r31
	...
    3eba:	00 00       	nop
    3ebc:	e0 f0       	brcs	.+56     	; 0x3ef6 <__stack+0x35f7>
    3ebe:	18 18       	sub	r1, r8
    3ec0:	18 f8       	.word	0xf818	; ????
    3ec2:	f0 00       	.word	0x00f0	; ????
	...
    3ecc:	e0 e0       	ldi	r30, 0x00	; 0
    3ece:	71 73       	andi	r23, 0x31	; 49
    3ed0:	73 73       	andi	r23, 0x33	; 51
    3ed2:	73 71       	andi	r23, 0x13	; 19
    3ed4:	f0 e0       	ldi	r31, 0x00	; 0
    3ed6:	e0 80       	ld	r14, Z
    3ed8:	00 00       	nop
    3eda:	00 00       	nop
    3edc:	00 c0       	rjmp	.+0      	; 0x3ede <__stack+0x35df>
    3ede:	e0 f0       	brcs	.+56     	; 0x3f18 <__stack+0x3619>
    3ee0:	70 38       	cpi	r23, 0x80	; 128
    3ee2:	38 38       	cpi	r19, 0x88	; 136
    3ee4:	38 38       	cpi	r19, 0x88	; 136
    3ee6:	38 ff       	.word	0xff38	; ????
    3ee8:	ff ff       	.word	0xffff	; ????
    3eea:	00 00       	nop
    3eec:	00 00       	nop
    3eee:	00 03       	mulsu	r16, r16
    3ef0:	0f 0f       	add	r16, r31
    3ef2:	1e 1c       	adc	r1, r14
    3ef4:	1c 1c       	adc	r1, r12
    3ef6:	1c 0e       	add	r1, r28
    3ef8:	0e 1f       	adc	r16, r30
    3efa:	1f 1f       	adc	r17, r31
	...
    3f30:	00 c0       	rjmp	.+0      	; 0x3f32 <__stack+0x3633>
    3f32:	e0 60       	ori	r30, 0x00	; 0
    3f34:	70 70       	andi	r23, 0x00	; 0
    3f36:	70 70       	andi	r23, 0x00	; 0
    3f38:	70 f0       	brcs	.+28     	; 0x3f56 <__stack+0x3657>
    3f3a:	e0 c0       	rjmp	.+448    	; 0x40fc <__stack+0x37fd>
    3f3c:	c0 e0       	ldi	r28, 0x00	; 0
    3f3e:	e0 70       	andi	r30, 0x00	; 0
    3f40:	70 70       	andi	r23, 0x00	; 0
    3f42:	70 70       	andi	r23, 0x00	; 0
    3f44:	f0 e0       	ldi	r31, 0x00	; 0
    3f46:	c0 80       	ld	r12, Z
    3f48:	00 00       	nop
    3f4a:	00 00       	nop
    3f4c:	00 c0       	rjmp	.+0      	; 0x3f4e <__stack+0x364f>
    3f4e:	e0 f0       	brcs	.+56     	; 0x3f88 <__stack+0x3689>
    3f50:	70 78       	andi	r23, 0x80	; 128
    3f52:	38 38       	cpi	r19, 0x88	; 136
    3f54:	38 38       	cpi	r19, 0x88	; 136
    3f56:	38 ff       	.word	0xff38	; ????
    3f58:	ff ff       	.word	0xffff	; ????
    3f5a:	39 38       	cpi	r19, 0x89	; 137
    3f5c:	38 38       	cpi	r19, 0x88	; 136
    3f5e:	38 38       	cpi	r19, 0x88	; 136
    3f60:	38 38       	cpi	r19, 0x88	; 136
    3f62:	39 3f       	cpi	r19, 0xF9	; 249
    3f64:	3f 3e       	cpi	r19, 0xEF	; 239
    3f66:	00 00       	nop
    3f68:	00 00       	nop
    3f6a:	03 0f       	add	r16, r19
    3f6c:	0f 1e       	adc	r0, r31
    3f6e:	1c 1c       	adc	r1, r12
    3f70:	1c 1c       	adc	r1, r12
    3f72:	0e 0e       	add	r0, r30
    3f74:	07 03       	mulsu	r16, r23
    3f76:	07 0f       	add	r16, r23
    3f78:	0e 1c       	adc	r0, r14
    3f7a:	1c 1c       	adc	r1, r12
    3f7c:	1c 1c       	adc	r1, r12
    3f7e:	1c 0c       	add	r1, r12
    3f80:	0e 0e       	add	r0, r30
	...
    3fb2:	00 00       	nop
    3fb4:	00 80       	ld	r0, Z
    3fb6:	c0 e0       	ldi	r28, 0x00	; 0
    3fb8:	e0 70       	andi	r30, 0x00	; 0
    3fba:	70 70       	andi	r23, 0x00	; 0
    3fbc:	70 70       	andi	r23, 0x00	; 0
    3fbe:	e0 e0       	ldi	r30, 0x00	; 0
    3fc0:	c0 00       	.word	0x00c0	; ????
    3fc2:	00 00       	nop
    3fc4:	fe ff       	.word	0xfffe	; ????
    3fc6:	ff 83       	std	Y+7, r31	; 0x07
    3fc8:	00 00       	nop
    3fca:	00 00       	nop
    3fcc:	00 00       	nop
    3fce:	00 01       	movw	r0, r0
    3fd0:	01 00       	.word	0x0001	; ????
    3fd2:	00 00       	nop
    3fd4:	00 03       	mulsu	r16, r16
    3fd6:	07 0f       	add	r16, r23
    3fd8:	1e 1c       	adc	r1, r14
    3fda:	1c 3c       	cpi	r17, 0xCC	; 204
    3fdc:	dc 9c       	mul	r13, r12
    3fde:	0e 0e       	add	r0, r30
    3fe0:	07 00       	.word	0x0007	; ????
    3fe2:	00 00       	nop
    3fe4:	00 00       	nop
    3fe6:	00 03       	mulsu	r16, r16
    3fe8:	03 03       	mulsu	r16, r19
    3fea:	03 03       	mulsu	r16, r19
    3fec:	03 03       	mulsu	r16, r19
	...
    3ff6:	00 18       	sub	r0, r0
    3ff8:	38 78       	andi	r19, 0x88	; 136
    3ffa:	f0 c0       	rjmp	.+480    	; 0x41dc <__stack+0x38dd>
    3ffc:	80 00       	.word	0x0080	; ????
	...
    4006:	00 80       	ld	r0, Z
    4008:	c0 e0       	ldi	r28, 0x00	; 0
    400a:	e0 70       	andi	r30, 0x00	; 0
    400c:	70 71       	andi	r23, 0x10	; 16
    400e:	71 70       	andi	r23, 0x01	; 1
    4010:	f0 e0       	ldi	r31, 0x00	; 0
    4012:	c0 80       	ld	r12, Z
    4014:	00 00       	nop
    4016:	00 00       	nop
    4018:	fe ff       	.word	0xfffe	; ????
    401a:	ff 39       	cpi	r31, 0x9F	; 159
    401c:	38 38       	cpi	r19, 0x88	; 136
    401e:	38 38       	cpi	r19, 0x88	; 136
    4020:	38 38       	cpi	r19, 0x88	; 136
    4022:	38 39       	cpi	r19, 0x98	; 152
    4024:	3f 3f       	cpi	r19, 0xFF	; 255
    4026:	3e 00       	.word	0x003e	; ????
    4028:	00 00       	nop
    402a:	00 03       	mulsu	r16, r16
    402c:	07 0f       	add	r16, r23
    402e:	0e 1c       	adc	r0, r14
    4030:	1c 1c       	adc	r1, r12
    4032:	1c 1c       	adc	r1, r12
    4034:	1c 1c       	adc	r1, r12
    4036:	0e 0e       	add	r0, r30
	...
    4054:	00 80       	ld	r0, Z
    4056:	c0 f0       	brcs	.+48     	; 0x4088 <__stack+0x3789>
    4058:	78 38       	cpi	r23, 0x88	; 136
    405a:	18 00       	.word	0x0018	; ????
    405c:	00 00       	nop
    405e:	00 00       	nop
    4060:	00 80       	ld	r0, Z
    4062:	c0 e0       	ldi	r28, 0x00	; 0
    4064:	e0 70       	andi	r30, 0x00	; 0
    4066:	70 71       	andi	r23, 0x10	; 16
    4068:	71 70       	andi	r23, 0x01	; 1
    406a:	f0 e0       	ldi	r31, 0x00	; 0
    406c:	c0 80       	ld	r12, Z
    406e:	00 00       	nop
    4070:	00 00       	nop
    4072:	fe ff       	.word	0xfffe	; ????
    4074:	ff 39       	cpi	r31, 0x9F	; 159
    4076:	38 38       	cpi	r19, 0x88	; 136
    4078:	38 38       	cpi	r19, 0x88	; 136
    407a:	38 38       	cpi	r19, 0x88	; 136
    407c:	38 39       	cpi	r19, 0x98	; 152
    407e:	3f 3f       	cpi	r19, 0xFF	; 255
    4080:	3e 00       	.word	0x003e	; ????
    4082:	00 00       	nop
    4084:	00 03       	mulsu	r16, r16
    4086:	07 0f       	add	r16, r23
    4088:	0e 1c       	adc	r0, r14
    408a:	1c 1c       	adc	r1, r12
    408c:	1c 1c       	adc	r1, r12
    408e:	1c 1c       	adc	r1, r12
    4090:	0e 0e       	add	r0, r30
	...
    40aa:	00 80       	ld	r0, Z
    40ac:	e0 70       	andi	r30, 0x00	; 0
    40ae:	38 18       	sub	r3, r8
    40b0:	38 70       	andi	r19, 0x08	; 8
    40b2:	e0 80       	ld	r14, Z
    40b4:	00 00       	nop
    40b6:	00 00       	nop
    40b8:	00 00       	nop
    40ba:	00 80       	ld	r0, Z
    40bc:	c1 e1       	ldi	r28, 0x11	; 17
    40be:	e0 70       	andi	r30, 0x00	; 0
    40c0:	70 70       	andi	r23, 0x00	; 0
    40c2:	70 70       	andi	r23, 0x00	; 0
    40c4:	f0 e1       	ldi	r31, 0x10	; 16
    40c6:	c1 80       	ldd	r12, Z+1	; 0x01
    40c8:	00 00       	nop
    40ca:	00 00       	nop
    40cc:	fe ff       	.word	0xfffe	; ????
    40ce:	ff 39       	cpi	r31, 0x9F	; 159
    40d0:	38 38       	cpi	r19, 0x88	; 136
    40d2:	38 38       	cpi	r19, 0x88	; 136
    40d4:	38 38       	cpi	r19, 0x88	; 136
    40d6:	38 39       	cpi	r19, 0x98	; 152
    40d8:	3f 3f       	cpi	r19, 0xFF	; 255
    40da:	3e 00       	.word	0x003e	; ????
    40dc:	00 00       	nop
    40de:	00 03       	mulsu	r16, r16
    40e0:	07 0f       	add	r16, r23
    40e2:	0e 1c       	adc	r0, r14
    40e4:	1c 1c       	adc	r1, r12
    40e6:	1c 1c       	adc	r1, r12
    40e8:	1c 1c       	adc	r1, r12
    40ea:	0e 0e       	add	r0, r30
	...
    4104:	00 c0       	rjmp	.+0      	; 0x4106 <__stack+0x3807>
    4106:	c0 c0       	rjmp	.+384    	; 0x4288 <__stack+0x3989>
    4108:	00 00       	nop
    410a:	00 c0       	rjmp	.+0      	; 0x410c <__stack+0x380d>
    410c:	c0 c0       	rjmp	.+384    	; 0x428e <__stack+0x398f>
    410e:	00 00       	nop
    4110:	00 00       	nop
    4112:	00 00       	nop
    4114:	00 80       	ld	r0, Z
    4116:	c0 e1       	ldi	r28, 0x10	; 16
    4118:	e1 71       	andi	r30, 0x11	; 17
    411a:	70 70       	andi	r23, 0x00	; 0
    411c:	70 71       	andi	r23, 0x10	; 16
    411e:	f1 e1       	ldi	r31, 0x11	; 17
    4120:	c0 80       	ld	r12, Z
    4122:	00 00       	nop
    4124:	00 00       	nop
    4126:	fe ff       	.word	0xfffe	; ????
    4128:	ff 39       	cpi	r31, 0x9F	; 159
    412a:	38 38       	cpi	r19, 0x88	; 136
    412c:	38 38       	cpi	r19, 0x88	; 136
    412e:	38 38       	cpi	r19, 0x88	; 136
    4130:	38 39       	cpi	r19, 0x98	; 152
    4132:	3f 3f       	cpi	r19, 0xFF	; 255
    4134:	3e 00       	.word	0x003e	; ????
    4136:	00 00       	nop
    4138:	00 03       	mulsu	r16, r16
    413a:	07 0f       	add	r16, r23
    413c:	0e 1c       	adc	r0, r14
    413e:	1c 1c       	adc	r1, r12
    4140:	1c 1c       	adc	r1, r12
    4142:	1c 1c       	adc	r1, r12
    4144:	0e 0e       	add	r0, r30
	...
    415a:	18 38       	cpi	r17, 0x88	; 136
    415c:	78 f0       	brcs	.+30     	; 0x417c <__stack+0x387d>
    415e:	c0 80       	ld	r12, Z
    4160:	00 00       	nop
    4162:	00 00       	nop
    4164:	00 f0       	brcs	.+0      	; 0x4166 <__stack+0x3867>
    4166:	f1 f1       	breq	.+124    	; 0x41e4 <__stack+0x38e5>
    4168:	00 00       	nop
    416a:	00 00       	nop
    416c:	00 ff       	sbrs	r16, 0
    416e:	ff ff       	.word	0xffff	; ????
    4170:	00 00       	nop
    4172:	00 00       	nop
    4174:	00 1f       	adc	r16, r16
    4176:	1f 1f       	adc	r17, r31
	...
    4184:	80 c0       	rjmp	.+256    	; 0x4286 <__stack+0x3987>
    4186:	f0 78       	andi	r31, 0x80	; 128
    4188:	38 18       	sub	r3, r8
    418a:	00 00       	nop
    418c:	f1 f1       	breq	.+124    	; 0x420a <__stack+0x390b>
    418e:	f0 00       	.word	0x00f0	; ????
    4190:	00 00       	nop
    4192:	00 00       	nop
    4194:	ff ff       	.word	0xffff	; ????
    4196:	ff 00       	.word	0x00ff	; ????
    4198:	00 00       	nop
    419a:	00 00       	nop
    419c:	1f 1f       	adc	r17, r31
    419e:	1f 00       	.word	0x001f	; ????
	...
    41a8:	00 00       	nop
    41aa:	00 80       	ld	r0, Z
    41ac:	e0 70       	andi	r30, 0x00	; 0
    41ae:	38 18       	sub	r3, r8
    41b0:	38 70       	andi	r19, 0x08	; 8
    41b2:	e0 80       	ld	r14, Z
    41b4:	00 01       	movw	r0, r0
    41b6:	01 00       	.word	0x0001	; ????
    41b8:	00 f0       	brcs	.+0      	; 0x41ba <__stack+0x38bb>
    41ba:	f0 f0       	brcs	.+60     	; 0x41f8 <__stack+0x38f9>
    41bc:	00 00       	nop
    41be:	01 01       	movw	r0, r2
    41c0:	00 00       	nop
    41c2:	00 00       	nop
    41c4:	ff ff       	.word	0xffff	; ????
    41c6:	ff 00       	.word	0x00ff	; ????
    41c8:	00 00       	nop
    41ca:	00 00       	nop
    41cc:	00 00       	nop
    41ce:	00 1f       	adc	r16, r16
    41d0:	1f 1f       	adc	r17, r31
	...
    41de:	00 00       	nop
    41e0:	00 c0       	rjmp	.+0      	; 0x41e2 <__stack+0x38e3>
    41e2:	c0 c0       	rjmp	.+384    	; 0x4364 <__stack+0x3a65>
    41e4:	00 00       	nop
    41e6:	c0 c0       	rjmp	.+384    	; 0x4368 <__stack+0x3a69>
    41e8:	c0 01       	movw	r24, r0
    41ea:	01 01       	movw	r0, r2
    41ec:	f0 f0       	brcs	.+60     	; 0x422a <__stack+0x392b>
    41ee:	f1 01       	movw	r30, r2
    41f0:	01 00       	.word	0x0001	; ????
    41f2:	00 00       	nop
    41f4:	ff ff       	.word	0xffff	; ????
    41f6:	ff 00       	.word	0x00ff	; ????
    41f8:	00 00       	nop
    41fa:	00 00       	nop
    41fc:	1f 1f       	adc	r17, r31
    41fe:	1f 00       	.word	0x001f	; ????
	...
    420c:	00 00       	nop
    420e:	80 80       	ld	r8, Z
    4210:	90 f0       	brcs	.+36     	; 0x4236 <__stack+0x3937>
    4212:	f0 e0       	ldi	r31, 0x00	; 0
    4214:	c0 c0       	rjmp	.+384    	; 0x4396 <__stack+0x3a97>
    4216:	c0 e0       	ldi	r28, 0x00	; 0
    4218:	e0 e0       	ldi	r30, 0x00	; 0
    421a:	00 00       	nop
    421c:	00 00       	nop
    421e:	00 80       	ld	r0, Z
    4220:	c0 e3       	ldi	r28, 0x30	; 48
    4222:	f3 73       	andi	r31, 0x33	; 51
    4224:	71 71       	andi	r23, 0x11	; 17
    4226:	71 e3       	ldi	r23, 0x31	; 49
    4228:	ef ff       	.word	0xffef	; ????
    422a:	fc f0       	brlt	.+62     	; 0x426a <__stack+0x396b>
    422c:	80 00       	.word	0x0080	; ????
    422e:	00 00       	nop
    4230:	00 fe       	sbrs	r0, 0
    4232:	ff ff       	.word	0xffff	; ????
    4234:	03 00       	.word	0x0003	; ????
    4236:	00 00       	nop
    4238:	00 00       	nop
    423a:	00 00       	nop
    423c:	81 ff       	sbrs	r24, 1
    423e:	ff 7f       	andi	r31, 0xFF	; 255
    4240:	00 00       	nop
    4242:	00 00       	nop
    4244:	00 07       	cpc	r16, r16
    4246:	0f 0f       	add	r16, r31
    4248:	1e 1c       	adc	r1, r14
    424a:	1c 1c       	adc	r1, r12
    424c:	1c 1e       	adc	r1, r28
    424e:	0e 0f       	add	r16, r30
    4250:	07 03       	mulsu	r16, r23
	...
    426a:	00 c0       	rjmp	.+0      	; 0x426c <__stack+0x396d>
    426c:	e0 70       	andi	r30, 0x00	; 0
    426e:	70 70       	andi	r23, 0x00	; 0
    4270:	f0 e0       	ldi	r31, 0x00	; 0
    4272:	c0 c0       	rjmp	.+384    	; 0x43f4 <__stack+0x3af5>
    4274:	c0 f0       	brcs	.+48     	; 0x42a6 <__stack+0x39a7>
    4276:	70 00       	.word	0x0070	; ????
    4278:	00 00       	nop
    427a:	00 00       	nop
    427c:	00 00       	nop
    427e:	f1 f1       	breq	.+124    	; 0x42fc <__stack+0x39fd>
    4280:	f0 c0       	rjmp	.+480    	; 0x4462 <__stack+0x3b63>
    4282:	e0 e0       	ldi	r30, 0x00	; 0
    4284:	71 71       	andi	r23, 0x11	; 17
    4286:	71 f1       	breq	.+92     	; 0x42e4 <__stack+0x39e5>
    4288:	f0 e0       	ldi	r31, 0x00	; 0
    428a:	c0 80       	ld	r12, Z
    428c:	00 00       	nop
    428e:	00 00       	nop
    4290:	00 ff       	sbrs	r16, 0
    4292:	ff ff       	.word	0xffff	; ????
    4294:	01 00       	.word	0x0001	; ????
    4296:	00 00       	nop
    4298:	00 00       	nop
    429a:	00 01       	movw	r0, r0
    429c:	ff ff       	.word	0xffff	; ????
    429e:	ff 00       	.word	0x00ff	; ????
    42a0:	00 00       	nop
    42a2:	00 00       	nop
    42a4:	1f 1f       	adc	r17, r31
    42a6:	1f 00       	.word	0x001f	; ????
    42a8:	00 00       	nop
    42aa:	00 00       	nop
    42ac:	00 00       	nop
    42ae:	00 1f       	adc	r16, r16
    42b0:	1f 1f       	adc	r17, r31
	...
    42ca:	00 00       	nop
    42cc:	00 18       	sub	r0, r0
    42ce:	38 78       	andi	r19, 0x88	; 136
    42d0:	f0 c0       	rjmp	.+480    	; 0x44b2 <__stack+0x3bb3>
    42d2:	80 00       	.word	0x0080	; ????
	...
    42dc:	00 00       	nop
    42de:	80 c0       	rjmp	.+256    	; 0x43e0 <__stack+0x3ae1>
    42e0:	e0 e0       	ldi	r30, 0x00	; 0
    42e2:	f0 70       	andi	r31, 0x00	; 0
    42e4:	70 71       	andi	r23, 0x10	; 16
    42e6:	71 70       	andi	r23, 0x01	; 1
    42e8:	e0 e0       	ldi	r30, 0x00	; 0
    42ea:	c0 80       	ld	r12, Z
    42ec:	00 00       	nop
    42ee:	00 00       	nop
    42f0:	00 fe       	sbrs	r0, 0
    42f2:	ff ff       	.word	0xffff	; ????
    42f4:	83 00       	.word	0x0083	; ????
    42f6:	00 00       	nop
    42f8:	00 00       	nop
    42fa:	00 00       	nop
    42fc:	00 83       	st	Z, r16
    42fe:	ff ff       	.word	0xffff	; ????
    4300:	fe 00       	.word	0x00fe	; ????
    4302:	00 00       	nop
    4304:	00 00       	nop
    4306:	03 07       	cpc	r16, r19
    4308:	0f 0e       	add	r0, r31
    430a:	1c 1c       	adc	r1, r12
    430c:	1c 1c       	adc	r1, r12
    430e:	1c 1e       	adc	r1, r28
    4310:	0e 0f       	add	r16, r30
    4312:	07 03       	mulsu	r16, r23
	...
    4334:	80 c0       	rjmp	.+256    	; 0x4436 <__stack+0x3b37>
    4336:	f0 78       	andi	r31, 0x80	; 128
    4338:	38 18       	sub	r3, r8
	...
    4342:	80 c0       	rjmp	.+256    	; 0x4444 <__stack+0x3b45>
    4344:	e0 e0       	ldi	r30, 0x00	; 0
    4346:	f0 70       	andi	r31, 0x00	; 0
    4348:	71 71       	andi	r23, 0x11	; 17
    434a:	70 70       	andi	r23, 0x00	; 0
    434c:	e0 e0       	ldi	r30, 0x00	; 0
    434e:	c0 80       	ld	r12, Z
    4350:	00 00       	nop
    4352:	00 00       	nop
    4354:	00 fe       	sbrs	r0, 0
    4356:	ff ff       	.word	0xffff	; ????
    4358:	83 00       	.word	0x0083	; ????
    435a:	00 00       	nop
    435c:	00 00       	nop
    435e:	00 00       	nop
    4360:	00 83       	st	Z, r16
    4362:	ff ff       	.word	0xffff	; ????
    4364:	fe 00       	.word	0x00fe	; ????
    4366:	00 00       	nop
    4368:	00 00       	nop
    436a:	03 07       	cpc	r16, r19
    436c:	0f 0e       	add	r0, r31
    436e:	1c 1c       	adc	r1, r12
    4370:	1c 1c       	adc	r1, r12
    4372:	1c 1e       	adc	r1, r28
    4374:	0e 0f       	add	r16, r30
    4376:	07 03       	mulsu	r16, r23
	...
    4394:	80 e0       	ldi	r24, 0x00	; 0
    4396:	70 38       	cpi	r23, 0x80	; 128
    4398:	18 38       	cpi	r17, 0x88	; 136
    439a:	70 e0       	ldi	r23, 0x00	; 0
    439c:	80 00       	.word	0x0080	; ????
	...
    43a6:	80 c1       	rjmp	.+768    	; 0x46a8 <__stack+0x3da9>
    43a8:	e1 e0       	ldi	r30, 0x01	; 1
    43aa:	f0 70       	andi	r31, 0x00	; 0
    43ac:	70 70       	andi	r23, 0x00	; 0
    43ae:	70 70       	andi	r23, 0x00	; 0
    43b0:	e1 e1       	ldi	r30, 0x11	; 17
    43b2:	c0 80       	ld	r12, Z
    43b4:	00 00       	nop
    43b6:	00 00       	nop
    43b8:	00 fe       	sbrs	r0, 0
    43ba:	ff ff       	.word	0xffff	; ????
    43bc:	83 00       	.word	0x0083	; ????
    43be:	00 00       	nop
    43c0:	00 00       	nop
    43c2:	00 00       	nop
    43c4:	00 83       	st	Z, r16
    43c6:	ff ff       	.word	0xffff	; ????
    43c8:	fe 00       	.word	0x00fe	; ????
    43ca:	00 00       	nop
    43cc:	00 00       	nop
    43ce:	03 07       	cpc	r16, r19
    43d0:	0f 0e       	add	r0, r31
    43d2:	1c 1c       	adc	r1, r12
    43d4:	1c 1c       	adc	r1, r12
    43d6:	1c 1e       	adc	r1, r28
    43d8:	0e 0f       	add	r16, r30
    43da:	07 03       	mulsu	r16, r23
	...
    43f4:	00 00       	nop
    43f6:	c0 e0       	ldi	r28, 0x00	; 0
    43f8:	70 70       	andi	r23, 0x00	; 0
    43fa:	70 f0       	brcs	.+28     	; 0x4418 <__stack+0x3b19>
    43fc:	e0 c0       	rjmp	.+448    	; 0x45be <__stack+0x3cbf>
    43fe:	c0 c0       	rjmp	.+384    	; 0x4580 <__stack+0x3c81>
    4400:	f0 70       	andi	r31, 0x00	; 0
	...
    440a:	81 c1       	rjmp	.+770    	; 0x470e <__stack+0x3e0f>
    440c:	e0 e0       	ldi	r30, 0x00	; 0
    440e:	f0 70       	andi	r31, 0x00	; 0
    4410:	71 71       	andi	r23, 0x11	; 17
    4412:	71 71       	andi	r23, 0x11	; 17
    4414:	e0 e0       	ldi	r30, 0x00	; 0
    4416:	c0 80       	ld	r12, Z
    4418:	00 00       	nop
    441a:	00 00       	nop
    441c:	00 fe       	sbrs	r0, 0
    441e:	ff ff       	.word	0xffff	; ????
    4420:	83 00       	.word	0x0083	; ????
    4422:	00 00       	nop
    4424:	00 00       	nop
    4426:	00 00       	nop
    4428:	00 83       	st	Z, r16
    442a:	ff ff       	.word	0xffff	; ????
    442c:	fe 00       	.word	0x00fe	; ????
    442e:	00 00       	nop
    4430:	00 00       	nop
    4432:	03 07       	cpc	r16, r19
    4434:	0f 0e       	add	r0, r31
    4436:	1c 1c       	adc	r1, r12
    4438:	1c 1c       	adc	r1, r12
    443a:	1c 1e       	adc	r1, r28
    443c:	0e 0f       	add	r16, r30
    443e:	07 03       	mulsu	r16, r23
	...
    445c:	00 c0       	rjmp	.+0      	; 0x445e <__stack+0x3b5f>
    445e:	c0 c0       	rjmp	.+384    	; 0x45e0 <__stack+0x3ce1>
    4460:	00 00       	nop
    4462:	00 c0       	rjmp	.+0      	; 0x4464 <__stack+0x3b65>
    4464:	c0 c0       	rjmp	.+384    	; 0x45e6 <__stack+0x3ce7>
	...
    446e:	80 c0       	rjmp	.+256    	; 0x4570 <__stack+0x3c71>
    4470:	e0 e1       	ldi	r30, 0x10	; 16
    4472:	f1 71       	andi	r31, 0x11	; 17
    4474:	70 70       	andi	r23, 0x00	; 0
    4476:	70 71       	andi	r23, 0x10	; 16
    4478:	e1 e1       	ldi	r30, 0x11	; 17
    447a:	c0 80       	ld	r12, Z
    447c:	00 00       	nop
    447e:	00 00       	nop
    4480:	00 fe       	sbrs	r0, 0
    4482:	ff ff       	.word	0xffff	; ????
    4484:	83 00       	.word	0x0083	; ????
    4486:	00 00       	nop
    4488:	00 00       	nop
    448a:	00 00       	nop
    448c:	00 83       	st	Z, r16
    448e:	ff ff       	.word	0xffff	; ????
    4490:	fe 00       	.word	0x00fe	; ????
    4492:	00 00       	nop
    4494:	00 00       	nop
    4496:	03 07       	cpc	r16, r19
    4498:	0f 0e       	add	r0, r31
    449a:	1c 1c       	adc	r1, r12
    449c:	1c 1c       	adc	r1, r12
    449e:	1c 1e       	adc	r1, r28
    44a0:	0e 0f       	add	r16, r30
    44a2:	07 03       	mulsu	r16, r23
	...
    44d4:	3c 3c       	cpi	r19, 0xCC	; 204
    44d6:	3c 3c       	cpi	r19, 0xCC	; 204
	...
    44e0:	0e 0e       	add	r0, r30
    44e2:	0e 0e       	add	r0, r30
    44e4:	0e 0e       	add	r0, r30
    44e6:	8e 8e       	std	Y+30, r8	; 0x1e
    44e8:	8e 8e       	std	Y+30, r8	; 0x1e
    44ea:	0e 0e       	add	r0, r30
    44ec:	0e 0e       	add	r0, r30
    44ee:	0e 0e       	add	r0, r30
    44f0:	0e 00       	.word	0x000e	; ????
    44f2:	00 00       	nop
    44f4:	00 00       	nop
    44f6:	00 00       	nop
    44f8:	07 07       	cpc	r16, r23
    44fa:	07 07       	cpc	r16, r23
	...
    452c:	80 c0       	rjmp	.+256    	; 0x462e <__stack+0x3d2f>
    452e:	e0 e0       	ldi	r30, 0x00	; 0
    4530:	f0 70       	andi	r31, 0x00	; 0
    4532:	70 70       	andi	r23, 0x00	; 0
    4534:	70 f0       	brcs	.+28     	; 0x4552 <__stack+0x3c53>
    4536:	f8 fe       	.word	0xfef8	; ????
    4538:	c6 80       	ldd	r12, Z+6	; 0x06
    453a:	00 00       	nop
    453c:	00 00       	nop
    453e:	00 fe       	sbrs	r0, 0
    4540:	ff ff       	.word	0xffff	; ????
    4542:	83 00       	.word	0x0083	; ????
    4544:	80 e0       	ldi	r24, 0x00	; 0
    4546:	70 3c       	cpi	r23, 0xC0	; 192
    4548:	0f 03       	fmul	r16, r23
    454a:	00 83       	st	Z, r16
    454c:	ff ff       	.word	0xffff	; ????
    454e:	fe 00       	.word	0x00fe	; ????
    4550:	00 00       	nop
    4552:	00 00       	nop
    4554:	03 c7       	rjmp	.+3590   	; 0x535c <fontMSSansSerif8pt+0xb24>
    4556:	ff 3e       	cpi	r31, 0xEF	; 239
    4558:	1f 1d       	adc	r17, r15
    455a:	1c 1c       	adc	r1, r12
    455c:	1c 1e       	adc	r1, r28
    455e:	0e 0f       	add	r16, r30
    4560:	07 03       	mulsu	r16, r23
	...
    457e:	00 18       	sub	r0, r0
    4580:	38 78       	andi	r19, 0x88	; 136
    4582:	f0 c0       	rjmp	.+480    	; 0x4764 <__stack+0x3e65>
    4584:	80 00       	.word	0x0080	; ????
	...
    458e:	00 f0       	brcs	.+0      	; 0x4590 <__stack+0x3c91>
    4590:	f0 f0       	brcs	.+60     	; 0x45ce <__stack+0x3ccf>
    4592:	00 00       	nop
    4594:	00 00       	nop
    4596:	01 01       	movw	r0, r2
    4598:	00 00       	nop
    459a:	f0 f0       	brcs	.+60     	; 0x45d8 <__stack+0x3cd9>
    459c:	f0 00       	.word	0x00f0	; ????
    459e:	00 00       	nop
    45a0:	00 00       	nop
    45a2:	ff ff       	.word	0xffff	; ????
    45a4:	ff 00       	.word	0x00ff	; ????
    45a6:	00 00       	nop
    45a8:	00 00       	nop
    45aa:	00 00       	nop
    45ac:	00 ff       	sbrs	r16, 0
    45ae:	ff ff       	.word	0xffff	; ????
    45b0:	00 00       	nop
    45b2:	00 00       	nop
    45b4:	00 03       	mulsu	r16, r16
    45b6:	07 0f       	add	r16, r23
    45b8:	1f 1e       	adc	r1, r31
    45ba:	1c 1c       	adc	r1, r12
    45bc:	1c 0e       	add	r1, r28
    45be:	0e 07       	cpc	r16, r30
    45c0:	1f 1f       	adc	r17, r31
    45c2:	1f 00       	.word	0x001f	; ????
	...
    45e0:	00 80       	ld	r0, Z
    45e2:	c0 f0       	brcs	.+48     	; 0x4614 <__stack+0x3d15>
    45e4:	78 38       	cpi	r23, 0x88	; 136
    45e6:	18 00       	.word	0x0018	; ????
    45e8:	00 00       	nop
    45ea:	00 00       	nop
    45ec:	00 00       	nop
    45ee:	f0 f0       	brcs	.+60     	; 0x462c <__stack+0x3d2d>
    45f0:	f0 00       	.word	0x00f0	; ????
    45f2:	00 00       	nop
    45f4:	01 01       	movw	r0, r2
    45f6:	00 00       	nop
    45f8:	00 f0       	brcs	.+0      	; 0x45fa <__stack+0x3cfb>
    45fa:	f0 f0       	brcs	.+60     	; 0x4638 <__stack+0x3d39>
    45fc:	00 00       	nop
    45fe:	00 00       	nop
    4600:	00 ff       	sbrs	r16, 0
    4602:	ff ff       	.word	0xffff	; ????
	...
    460c:	ff ff       	.word	0xffff	; ????
    460e:	ff 00       	.word	0x00ff	; ????
    4610:	00 00       	nop
    4612:	00 00       	nop
    4614:	03 07       	cpc	r16, r19
    4616:	0f 1f       	adc	r16, r31
    4618:	1e 1c       	adc	r1, r14
    461a:	1c 1c       	adc	r1, r12
    461c:	0e 0e       	add	r0, r30
    461e:	07 1f       	adc	r16, r23
    4620:	1f 1f       	adc	r17, r31
	...
    463a:	00 00       	nop
    463c:	80 e0       	ldi	r24, 0x00	; 0
    463e:	70 38       	cpi	r23, 0x80	; 128
    4640:	18 38       	cpi	r17, 0x88	; 136
    4642:	70 e0       	ldi	r23, 0x00	; 0
    4644:	80 00       	.word	0x0080	; ????
    4646:	00 00       	nop
    4648:	00 00       	nop
    464a:	00 00       	nop
    464c:	00 f0       	brcs	.+0      	; 0x464e <__stack+0x3d4f>
    464e:	f1 f1       	breq	.+124    	; 0x46cc <__stack+0x3dcd>
    4650:	00 00       	nop
    4652:	00 00       	nop
    4654:	00 00       	nop
    4656:	00 01       	movw	r0, r0
    4658:	f1 f0       	breq	.+60     	; 0x4696 <__stack+0x3d97>
    465a:	f0 00       	.word	0x00f0	; ????
    465c:	00 00       	nop
    465e:	00 00       	nop
    4660:	ff ff       	.word	0xffff	; ????
    4662:	ff 00       	.word	0x00ff	; ????
    4664:	00 00       	nop
    4666:	00 00       	nop
    4668:	00 00       	nop
    466a:	00 ff       	sbrs	r16, 0
    466c:	ff ff       	.word	0xffff	; ????
    466e:	00 00       	nop
    4670:	00 00       	nop
    4672:	00 03       	mulsu	r16, r16
    4674:	07 0f       	add	r16, r23
    4676:	1f 1e       	adc	r1, r31
    4678:	1c 1c       	adc	r1, r12
    467a:	1c 0e       	add	r1, r28
    467c:	0e 07       	cpc	r16, r30
    467e:	1f 1f       	adc	r17, r31
    4680:	1f 00       	.word	0x001f	; ????
	...
    469a:	00 c0       	rjmp	.+0      	; 0x469c <__stack+0x3d9d>
    469c:	c0 c0       	rjmp	.+384    	; 0x481e <bmpArrowRight+0xc>
    469e:	00 00       	nop
    46a0:	00 c0       	rjmp	.+0      	; 0x46a2 <__stack+0x3da3>
    46a2:	c0 c0       	rjmp	.+384    	; 0x4824 <bmpArrowRight+0x12>
	...
    46ac:	f0 f0       	brcs	.+60     	; 0x46ea <__stack+0x3deb>
    46ae:	f1 01       	movw	r30, r2
    46b0:	01 00       	.word	0x0001	; ????
    46b2:	00 00       	nop
    46b4:	01 01       	movw	r0, r2
    46b6:	01 f0       	breq	.+0      	; 0x46b8 <__stack+0x3db9>
    46b8:	f0 f0       	brcs	.+60     	; 0x46f6 <__stack+0x3df7>
    46ba:	00 00       	nop
    46bc:	00 00       	nop
    46be:	00 ff       	sbrs	r16, 0
    46c0:	ff ff       	.word	0xffff	; ????
	...
    46ca:	ff ff       	.word	0xffff	; ????
    46cc:	ff 00       	.word	0x00ff	; ????
    46ce:	00 00       	nop
    46d0:	00 00       	nop
    46d2:	03 07       	cpc	r16, r19
    46d4:	0f 1f       	adc	r16, r31
    46d6:	1e 1c       	adc	r1, r14
    46d8:	1c 1c       	adc	r1, r12
    46da:	0e 0e       	add	r0, r30
    46dc:	07 1f       	adc	r16, r23
    46de:	1f 1f       	adc	r17, r31
	...
    46fc:	00 80       	ld	r0, Z
    46fe:	c0 f0       	brcs	.+48     	; 0x4730 <__stack+0x3e31>
    4700:	78 38       	cpi	r23, 0x88	; 136
    4702:	18 00       	.word	0x0018	; ????
    4704:	00 00       	nop
    4706:	00 70       	andi	r16, 0x00	; 0
    4708:	f0 f0       	brcs	.+60     	; 0x4746 <__stack+0x3e47>
    470a:	c0 00       	.word	0x00c0	; ????
    470c:	00 00       	nop
    470e:	01 01       	movw	r0, r2
    4710:	00 00       	nop
    4712:	c0 f0       	brcs	.+48     	; 0x4744 <__stack+0x3e45>
    4714:	f0 30       	cpi	r31, 0x00	; 0
    4716:	00 00       	nop
    4718:	00 03       	mulsu	r16, r16
    471a:	0f 7f       	andi	r16, 0xFF	; 255
    471c:	fe f0       	brts	.+62     	; 0x475c <__stack+0x3e5d>
    471e:	80 00       	.word	0x0080	; ????
    4720:	80 f0       	brcs	.+32     	; 0x4742 <__stack+0x3e43>
    4722:	fe 7f       	andi	r31, 0xFE	; 254
    4724:	0f 01       	movw	r0, r30
    4726:	00 00       	nop
    4728:	00 00       	nop
    472a:	00 00       	nop
    472c:	00 03       	mulsu	r16, r16
    472e:	cf ff       	.word	0xffcf	; ????
    4730:	fe 7f       	andi	r31, 0xFE	; 254
    4732:	0f 01       	movw	r0, r30
	...
    473c:	00 00       	nop
    473e:	02 03       	mulsu	r16, r18
    4740:	03 01       	movw	r0, r6
	...
    474a:	00 00       	nop
    474c:	00 f0       	brcs	.+0      	; 0x474e <__stack+0x3e4f>
    474e:	f0 f0       	brcs	.+60     	; 0x478c <__stack+0x3e8d>
	...
    4760:	ff ff       	.word	0xffff	; ????
    4762:	ff c0       	rjmp	.+510    	; 0x4962 <fontMSSansSerif8pt+0x12a>
    4764:	e0 e0       	ldi	r30, 0x00	; 0
    4766:	70 70       	andi	r23, 0x00	; 0
    4768:	70 70       	andi	r23, 0x00	; 0
    476a:	f0 e0       	ldi	r31, 0x00	; 0
    476c:	e0 c0       	rjmp	.+448    	; 0x492e <fontMSSansSerif8pt+0xf6>
    476e:	00 00       	nop
    4770:	00 00       	nop
    4772:	00 ff       	sbrs	r16, 0
    4774:	ff ff       	.word	0xffff	; ????
    4776:	01 00       	.word	0x0001	; ????
    4778:	00 00       	nop
    477a:	00 00       	nop
    477c:	00 00       	nop
    477e:	81 ff       	sbrs	r24, 1
    4780:	ff fe       	.word	0xfeff	; ????
    4782:	00 00       	nop
    4784:	00 00       	nop
    4786:	ff ff       	.word	0xffff	; ????
    4788:	ff 07       	cpc	r31, r31
    478a:	0e 0e       	add	r0, r30
    478c:	1c 1c       	adc	r1, r12
    478e:	1c 1c       	adc	r1, r12
    4790:	1e 0f       	add	r17, r30
    4792:	07 03       	mulsu	r16, r23
    4794:	00 00       	nop
    4796:	00 00       	nop
    4798:	00 03       	mulsu	r16, r16
    479a:	03 03       	mulsu	r16, r19
	...
    47ac:	00 c0       	rjmp	.+0      	; 0x47ae <__stack+0x3eaf>
    47ae:	c0 c0       	rjmp	.+384    	; 0x4930 <fontMSSansSerif8pt+0xf8>
    47b0:	00 00       	nop
    47b2:	00 c0       	rjmp	.+0      	; 0x47b4 <__stack+0x3eb5>
    47b4:	c0 c0       	rjmp	.+384    	; 0x4936 <fontMSSansSerif8pt+0xfe>
    47b6:	00 00       	nop
    47b8:	00 00       	nop
    47ba:	00 70       	andi	r16, 0x00	; 0
    47bc:	f0 f0       	brcs	.+60     	; 0x47fa <__stack+0x3efb>
    47be:	c1 01       	movw	r24, r2
    47c0:	01 00       	.word	0x0001	; ????
    47c2:	00 00       	nop
    47c4:	01 01       	movw	r0, r2
    47c6:	c1 f0       	breq	.+48     	; 0x47f8 <__stack+0x3ef9>
    47c8:	f0 30       	cpi	r31, 0x00	; 0
    47ca:	00 00       	nop
    47cc:	00 03       	mulsu	r16, r16
    47ce:	0f 7f       	andi	r16, 0xFF	; 255
    47d0:	fe f0       	brts	.+62     	; 0x4810 <bmpArrowLeft+0x12>
    47d2:	80 00       	.word	0x0080	; ????
    47d4:	80 f0       	brcs	.+32     	; 0x47f6 <__stack+0x3ef7>
    47d6:	fe 7f       	andi	r31, 0xFE	; 254
    47d8:	0f 01       	movw	r0, r30
    47da:	00 00       	nop
    47dc:	00 00       	nop
    47de:	00 00       	nop
    47e0:	00 03       	mulsu	r16, r16
    47e2:	cf ff       	.word	0xffcf	; ????
    47e4:	fe 7f       	andi	r31, 0xFE	; 254
    47e6:	0f 01       	movw	r0, r30
	...
    47f0:	00 00       	nop
    47f2:	02 03       	mulsu	r16, r18
    47f4:	03 01       	movw	r0, r6
	...

000047fe <bmpArrowLeft>:
    47fe:	08 0d 10 00 40 e0 f0 f8 fc fe ff 00 00 00 01 03     ....@...........
    480e:	07 0f 1f 00                                         ....

00004812 <bmpArrowRight>:
    4812:	08 0d 10 00 00 ff fe fc f8 f0 e0 40 00 1f 0f 07     ...........@....
    4822:	03 01 00 00                                         ....

00004826 <bmpClick>:
    4826:	07 0b 0e 00 80 80 80 ff 80 80 80 00 01 03 07 03     ................
    4836:	01 00                                               ..

00004838 <fontMSSansSerif8pt>:
    4838:	0d 00 0b 00 18 00 20 00 7f 00 a0 00 a0 00 a4 00     ...... .........
    4848:	a4 00 a6 00 a7 00 a9 00 a9 00 ab 00 ae 00 b0 00     ................
    4858:	b1 00 b5 00 b7 00 bb 00 bb 00 01 04 0c 04 0e 04     ................
    4868:	4f 04 51 04 5c 04 5e 04 5f 04 90 04 91 04 13 20     O.Q.\.^._...... 
    4878:	14 20 18 20 1a 20 1c 20 1e 20 20 20 22 20 26 20     . . . . .   " & 
    4888:	26 20 30 20 30 20 39 20 3a 20 ac 20 ac 20 16 21     & 0 0 9 : . . .!
    4898:	16 21 22 21 22 21 03 00 06 00 a0 05 03 00 06 00     .!"!"!..........
    48a8:	a6 05 05 00 0a 00 ac 05 07 00 0e 00 b6 05 06 00     ................
    48b8:	0c 00 c4 05 08 00 10 00 d0 05 06 00 0c 00 e0 05     ................
    48c8:	02 00 04 00 ec 05 03 00 06 00 f0 05 03 00 06 00     ................
    48d8:	f6 05 04 00 08 00 fc 05 06 00 0c 00 04 06 03 00     ................
    48e8:	06 00 10 06 03 00 06 00 16 06 03 00 06 00 1c 06     ................
    48f8:	05 00 0a 00 22 06 06 00 0c 00 2c 06 06 00 0c 00     ....".....,.....
    4908:	38 06 06 00 0c 00 44 06 06 00 0c 00 50 06 06 00     8.....D.....P...
    4918:	0c 00 5c 06 06 00 0c 00 68 06 06 00 0c 00 74 06     ..\.....h.....t.
    4928:	06 00 0c 00 80 06 06 00 0c 00 8c 06 06 00 0c 00     ................
    4938:	98 06 03 00 06 00 a4 06 03 00 06 00 aa 06 06 00     ................
    4948:	0c 00 b0 06 06 00 0c 00 bc 06 06 00 0c 00 c8 06     ................
    4958:	06 00 0c 00 d4 06 0b 00 16 00 e0 06 07 00 0e 00     ................
    4968:	f6 06 07 00 0e 00 04 07 07 00 0e 00 12 07 08 00     ................
    4978:	10 00 20 07 07 00 0e 00 30 07 06 00 0c 00 3e 07     .. .....0.....>.
    4988:	08 00 10 00 4a 07 08 00 10 00 5a 07 03 00 06 00     ....J.....Z.....
    4998:	6a 07 05 00 0a 00 70 07 07 00 0e 00 7a 07 06 00     j.....p.....z...
    49a8:	0c 00 88 07 09 00 12 00 94 07 08 00 10 00 a6 07     ................
    49b8:	08 00 10 00 b6 07 07 00 0e 00 c6 07 08 00 10 00     ................
    49c8:	d4 07 08 00 10 00 e4 07 07 00 0e 00 f4 07 07 00     ................
    49d8:	0e 00 02 08 08 00 10 00 10 08 07 00 0e 00 20 08     .............. .
    49e8:	0b 00 16 00 2e 08 07 00 0e 00 44 08 07 00 0e 00     ..........D.....
    49f8:	52 08 07 00 0e 00 60 08 03 00 06 00 6e 08 05 00     R.....`.....n...
    4a08:	0a 00 74 08 03 00 06 00 7e 08 06 00 0c 00 84 08     ..t.....~.......
    4a18:	06 00 0c 00 90 08 03 00 06 00 9c 08 06 00 0c 00     ................
    4a28:	a2 08 06 00 0c 00 ae 08 06 00 0c 00 ba 08 06 00     ................
    4a38:	0c 00 c6 08 06 00 0c 00 d2 08 03 00 06 00 de 08     ................
    4a48:	06 00 0c 00 e4 08 06 00 0c 00 f0 08 02 00 04 00     ................
    4a58:	fc 08 02 00 04 00 00 09 06 00 0c 00 04 09 02 00     ................
    4a68:	04 00 10 09 08 00 10 00 14 09 06 00 0c 00 24 09     ..............$.
    4a78:	06 00 0c 00 30 09 06 00 0c 00 3c 09 06 00 0c 00     ....0.....<.....
    4a88:	48 09 03 00 06 00 54 09 05 00 0a 00 5a 09 03 00     H.....T.....Z...
    4a98:	06 00 64 09 06 00 0c 00 6a 09 06 00 0c 00 76 09     ..d.....j.....v.
    4aa8:	08 00 10 00 82 09 05 00 0a 00 92 09 05 00 0a 00     ................
    4ab8:	9c 09 05 00 0a 00 a6 09 04 00 08 00 b0 09 02 00     ................
    4ac8:	04 00 b8 09 04 00 08 00 bc 09 07 00 0e 00 c4 09     ................
    4ad8:	03 00 06 00 d2 09 03 00 06 00 d8 09 06 00 0c 00     ................
    4ae8:	de 09 02 00 04 00 ea 09 06 00 0c 00 ee 09 09 00     ................
    4af8:	12 00 fa 09 06 00 0c 00 0c 0a 06 00 0c 00 18 0a     ................
    4b08:	03 00 06 00 24 0a 09 00 12 00 2a 0a 04 00 08 00     ....$.....*.....
    4b18:	3c 0a 06 00 0c 00 44 0a 06 00 0c 00 50 0a 06 00     <.....D.....P...
    4b28:	0c 00 5c 0a 03 00 06 00 68 0a 06 00 0c 00 6e 0a     ..\.....h.....n.
    4b38:	07 00 0e 00 7a 0a 09 00 12 00 88 0a 06 00 0c 00     ....z...........
    4b48:	9a 0a 07 00 0e 00 a6 0a 07 00 0e 00 b4 0a 03 00     ................
    4b58:	06 00 c2 0a 03 00 06 00 c8 0a 05 00 0a 00 ce 0a     ................
    4b68:	0b 00 16 00 d8 0a 0b 00 16 00 ee 0a 09 00 12 00     ................
    4b78:	04 0b 07 00 0e 00 16 0b 08 00 10 00 24 0b 07 00     ............$...
    4b88:	0e 00 34 0b 07 00 0e 00 42 0b 07 00 0e 00 50 0b     ..4.....B.....P.
    4b98:	07 00 0e 00 5e 0b 06 00 0c 00 6c 0b 09 00 12 00     ....^.....l.....
    4ba8:	78 0b 07 00 0e 00 8a 0b 0b 00 16 00 98 0b 07 00     x...............
    4bb8:	0e 00 ae 0b 08 00 10 00 bc 0b 08 00 10 00 cc 0b     ................
    4bc8:	07 00 0e 00 dc 0b 08 00 10 00 ea 0b 09 00 12 00     ................
    4bd8:	fa 0b 08 00 10 00 0c 0c 08 00 10 00 1c 0c 08 00     ................
    4be8:	10 00 2c 0c 07 00 0e 00 3c 0c 07 00 0e 00 4a 0c     ..,.....<.....J.
    4bf8:	07 00 0e 00 58 0c 08 00 10 00 66 0c 0b 00 16 00     ....X.....f.....
    4c08:	76 0c 07 00 0e 00 8c 0c 08 00 10 00 9a 0c 08 00     v...............
    4c18:	10 00 aa 0c 09 00 12 00 ba 0c 0a 00 14 00 cc 0c     ................
    4c28:	08 00 10 00 e0 0c 0a 00 14 00 f0 0c 07 00 0e 00     ................
    4c38:	04 0d 07 00 0e 00 12 0d 09 00 12 00 20 0d 08 00     ............ ...
    4c48:	10 00 32 0d 06 00 0c 00 42 0d 06 00 0c 00 4e 0d     ..2.....B.....N.
    4c58:	06 00 0c 00 5a 0d 05 00 0a 00 66 0d 06 00 0c 00     ....Z.....f.....
    4c68:	70 0d 06 00 0c 00 7c 0d 08 00 10 00 88 0d 06 00     p.....|.........
    4c78:	0c 00 98 0d 06 00 0c 00 a4 0d 06 00 0c 00 b0 0d     ................
    4c88:	06 00 0c 00 bc 0d 06 00 0c 00 c8 0d 08 00 10 00     ................
    4c98:	d4 0d 06 00 0c 00 e4 0d 06 00 0c 00 f0 0d 06 00     ................
    4ca8:	0c 00 fc 0d 06 00 0c 00 08 0e 06 00 0c 00 14 0e     ................
    4cb8:	05 00 0a 00 20 0e 05 00 0a 00 2a 0e 08 00 10 00     .... .....*.....
    4cc8:	34 0e 05 00 0a 00 44 0e 06 00 0c 00 4e 0e 05 00     4.....D.....N...
    4cd8:	0a 00 5a 0e 08 00 10 00 64 0e 09 00 12 00 74 0e     ..Z.....d.....t.
    4ce8:	07 00 0e 00 86 0e 08 00 10 00 94 0e 06 00 0c 00     ................
    4cf8:	a4 0e 06 00 0c 00 b0 0e 08 00 10 00 bc 0e 06 00     ................
    4d08:	0c 00 cc 0e 06 00 0c 00 d8 0e 06 00 0c 00 e4 0e     ................
    4d18:	05 00 0a 00 f0 0e 06 00 0c 00 fa 0e 05 00 0a 00     ................
    4d28:	06 0f 02 00 04 00 10 0f 03 00 06 00 14 0f 02 00     ................
    4d38:	04 00 1a 0f 0a 00 14 00 1e 0f 0a 00 14 00 32 0f     ..............2.
    4d48:	06 00 0c 00 46 0f 06 00 0c 00 52 0f 05 00 0a 00     ....F.....R.....
    4d58:	5e 0f 06 00 0c 00 68 0f 06 00 0c 00 74 0f 05 00     ^.....h.....t...
    4d68:	0a 00 80 0f 05 00 0a 00 8a 0f 06 00 0c 00 94 0f     ................
    4d78:	03 00 06 00 a0 0f 03 00 06 00 a6 0f 03 00 06 00     ................
    4d88:	ac 0f 04 00 08 00 b2 0f 04 00 08 00 ba 0f 05 00     ................
    4d98:	0a 00 c2 0f 05 00 0a 00 cc 0f 05 00 0a 00 d6 0f     ................
    4da8:	06 00 0c 00 e0 0f 06 00 0c 00 ec 0f 0b 00 16 00     ................
    4db8:	f8 0f 06 00 0c 00 0e 10 06 00 0c 00 1a 10 06 00     ................
    4dc8:	0c 00 26 10 0b 00 16 00 32 10 09 00 12 00 48 10     ..&.....2.....H.
    4dd8:	00 00 00 00 00 00 00 fc 00 00 05 00 00 1c 00 00     ................
    4de8:	1c 00 00 00 00 00 00 10 fc 10 10 fc 10 00 01 07     ................
    4df8:	01 01 07 01 00 30 48 fc 88 10 00 02 04 0f 04 03     .....0H.........
    4e08:	00 08 14 94 48 20 10 08 00 02 01 00 02 05 05 02     ....H ..........
    4e18:	00 98 64 98 00 80 00 03 04 04 03 04 00 1c 00 00     ..d.............
    4e28:	00 f8 04 00 0f 10 00 04 f8 00 10 0f 00 28 10 28     .............(.(
    4e38:	00 00 00 00 00 80 80 e0 80 80 00 00 00 03 00 00     ................
    4e48:	00 00 00 00 08 04 00 80 80 00 00 00 00 00 00 00     ................
    4e58:	04 00 00 00 80 60 1c 00 06 01 00 00 00 f8 04 04     .....`..........
    4e68:	04 f8 00 03 04 04 04 03 00 08 08 fc 00 00 00 00     ................
    4e78:	00 07 00 00 00 08 04 84 44 38 00 06 05 04 04 04     ........D8......
    4e88:	00 08 04 44 44 b8 00 02 04 04 04 03 00 80 60 18     ...DD.........`.
    4e98:	fc 00 00 01 01 01 07 01 00 7c 24 24 24 c4 00 02     .........|$$$...
    4ea8:	04 04 04 03 00 f8 44 44 44 88 00 03 04 04 04 03     ......DDD.......
    4eb8:	00 04 04 c4 34 0c 00 00 07 00 00 00 00 b8 44 44     ....4.........DD
    4ec8:	44 b8 00 03 04 04 04 03 00 38 44 44 44 f8 00 02     D........8DDD...
    4ed8:	04 04 04 03 00 20 00 00 04 00 00 00 20 00 08 04     ..... ...... ...
    4ee8:	00 80 40 20 10 00 00 00 01 02 04 00 00 40 40 40     ..@ .........@@@
    4ef8:	40 40 00 01 01 01 01 01 00 10 20 40 80 00 00 04     @@........ @....
    4f08:	02 01 00 00 00 08 04 84 44 38 00 00 00 05 00 00     ........D8......
    4f18:	00 e0 18 08 c4 24 24 e4 08 18 e0 00 01 06 04 08     .....$$.........
    4f28:	09 09 08 09 01 01 00 c0 30 0c 30 c0 00 06 01 01     ........0.0.....
    4f38:	01 01 01 06 00 fc 44 44 44 b8 00 00 07 04 04 04     ......DDD.......
    4f48:	03 00 00 f8 04 04 04 04 08 00 03 04 04 04 04 02     ................
    4f58:	00 fc 04 04 04 08 f0 00 00 07 04 04 04 02 01 00     ................
    4f68:	00 fc 44 44 44 04 00 00 07 04 04 04 04 00 00 fc     ..DDD...........
    4f78:	44 44 44 04 00 07 00 00 00 00 00 f8 04 04 44 44     DDD...........DD
    4f88:	c8 00 00 03 04 04 04 02 07 00 00 fc 40 40 40 40     ............@@@@
    4f98:	fc 00 00 07 00 00 00 00 07 00 00 fc 00 00 07 00     ................
    4fa8:	00 00 00 fc 00 03 04 04 03 00 00 fc 60 90 08 04     ............`...
    4fb8:	00 00 07 00 00 01 02 04 00 fc 00 00 00 00 00 07     ................
    4fc8:	04 04 04 04 00 fc 30 c0 00 c0 30 fc 00 00 07 00     ......0...0.....
    4fd8:	00 03 00 00 07 00 00 fc 18 60 80 00 fc 00 00 07     .........`......
    4fe8:	00 00 00 03 07 00 00 f8 04 04 04 04 f8 00 00 03     ................
    4ff8:	04 04 04 04 03 00 00 fc 44 44 44 44 38 00 07 00     ........DDDD8...
    5008:	00 00 00 00 00 f8 04 04 04 04 f8 00 00 03 04 04     ................
    5018:	05 06 0b 00 00 fc 44 44 44 44 b8 00 00 07 00 00     ......DDDD......
    5028:	00 00 07 00 00 38 44 44 44 88 00 00 02 04 04 04     .....8DDD.......
    5038:	03 00 00 04 04 fc 04 04 00 00 00 00 07 00 00 00     ................
    5048:	00 fc 00 00 00 00 fc 00 00 03 04 04 04 04 03 00     ................
    5058:	0c 70 80 00 80 70 0c 00 00 01 06 01 00 00 0c 70     .p...p.........p
    5068:	80 00 80 70 80 00 80 70 0c 00 00 01 06 01 00 01     ...p...p........
    5078:	06 01 00 00 0c 10 a0 40 a0 10 0c 06 01 00 00 00     .......@........
    5088:	01 06 0c 10 20 c0 20 10 0c 00 00 00 07 00 00 00     .... . .........
    5098:	04 04 84 44 24 14 0c 06 05 04 04 04 04 04 00 fc     ...D$...........
    50a8:	04 00 1f 10 00 1c 60 80 00 00 00 00 01 06 00 04     ......`.........
    50b8:	fc 00 10 1f 00 08 04 02 04 08 00 00 00 00 00 00     ................
    50c8:	00 00 00 00 00 00 10 10 10 10 10 10 00 04 08 00     ................
    50d8:	00 00 00 00 a0 a0 a0 c0 00 03 04 04 04 07 00 fc     ................
    50e8:	20 20 20 c0 00 07 04 04 04 03 00 c0 20 20 20 40        .........   @
    50f8:	00 03 04 04 04 02 00 c0 20 20 20 fc 00 03 04 04     ........   .....
    5108:	04 07 00 c0 a0 a0 a0 c0 00 03 04 04 04 02 00 f8     ................
    5118:	24 00 07 00 00 c0 20 20 20 e0 00 13 14 14 14 0f     $.....   .......
    5128:	00 fc 40 20 20 c0 00 07 00 00 00 07 00 e4 00 07     ..@  ...........
    5138:	00 e4 00 1f 00 fc 80 40 20 00 00 07 00 01 02 04     .......@ .......
    5148:	00 fc 00 07 00 e0 20 20 c0 20 20 c0 00 07 00 00     ......  .  .....
    5158:	07 00 00 07 00 e0 40 20 20 c0 00 07 00 00 00 07     ......@  .......
    5168:	00 c0 20 20 20 c0 00 03 04 04 04 03 00 e0 20 20     ..   .........  
    5178:	20 c0 00 1f 04 04 04 03 00 c0 20 20 20 e0 00 03      .........   ...
    5188:	04 04 04 1f 00 e0 20 00 07 00 00 40 a0 20 40 00     ...... ....@. @.
    5198:	02 04 05 02 00 f8 20 00 03 04 00 e0 00 00 00 e0     ...... .........
    51a8:	00 03 04 04 02 07 00 60 80 00 80 60 00 00 01 06     .......`...`....
    51b8:	01 00 00 e0 00 80 60 80 00 e0 00 01 06 01 00 01     ......`.........
    51c8:	06 01 00 60 80 80 60 00 06 01 01 06 00 e0 00 00     ...`..`.........
    51d8:	e0 10 11 0e 02 01 00 20 20 a0 60 00 06 05 04 04     .......  .`.....
    51e8:	00 40 bc 02 00 00 07 08 00 fc 00 0f 00 02 bc 40     .@.............@
    51f8:	00 08 07 00 00 10 08 08 10 10 08 00 00 00 00 00     ................
    5208:	00 00 f8 08 f8 07 04 07 00 00 00 00 00 00 00 74     ...............t
    5218:	88 88 88 74 00 01 00 00 00 01 00 7c 00 1f 00 68     ...t.......|...h
    5228:	94 24 44 88 00 04 08 09 0a 05 00 70 88 24 54 54     .$D........p.$TT
    5238:	04 88 70 00 00 00 01 01 01 01 00 00 00 00 80 40     ..p............@
    5248:	80 40 00 01 02 05 02 04 00 80 80 80 80 80 00 00     .@..............
    5258:	00 00 00 01 00 40 40 00 00 00 00 fc 02 7a 2a 2a     .....@@......z**
    5268:	52 02 fc 00 00 01 01 01 01 01 01 00 00 08 14 08     R...............
    5278:	00 00 00 00 00 40 40 f0 40 40 00 04 04 05 04 04     .....@@.@@......
    5288:	20 e0 00 20 e0 00 00 0f 04 04 07 02 00 38 7c fc      .. .........8|.
    5298:	04 fc 00 00 00 0f 00 0f 00 40 00 00 00 00 00 40     .........@.....@
    52a8:	80 40 80 00 00 04 02 05 02 01 00 fc 45 44 45 04     .@..........EDE.
    52b8:	00 00 07 04 04 04 04 00 04 04 04 fc 44 44 44 80     ............DDD.
    52c8:	00 00 00 00 07 00 06 04 03 00 00 fc 04 06 05 04     ................
    52d8:	00 07 00 00 00 00 00 f8 44 44 44 04 08 00 03 04     ........DDD.....
    52e8:	04 04 04 02 00 38 44 44 44 88 00 00 02 04 04 04     .....8DDD.......
    52f8:	03 00 00 fc 00 00 07 00 01 fc 01 00 07 00 00 00     ................
    5308:	00 fc 00 03 04 04 03 00 00 00 f8 04 04 04 fc 40     ...............@
    5318:	40 40 80 00 04 03 00 00 00 07 04 04 04 03 00 fc     @@..............
    5328:	40 40 40 40 fc 40 40 40 80 00 07 00 00 00 00 07     @@@@.@@@........
    5338:	04 04 04 03 04 04 04 fc 84 44 44 80 00 00 00 00     .........DD.....
    5348:	07 00 00 00 07 00 00 fc 60 92 09 04 00 00 07 00     ........`.......
    5358:	00 01 02 04 00 7c 81 82 82 81 fc 00 00 02 04 04     .....|..........
    5368:	04 04 03 00 00 fc 00 00 00 fc 00 00 07 04 1c 04     ................
    5378:	07 00 00 c0 30 0c 30 c0 00 06 01 01 01 01 01 06     ....0.0.........
    5388:	00 fc 44 44 44 84 00 00 07 04 04 04 03 00 00 fc     ..DDD...........
    5398:	44 44 44 b8 00 00 07 04 04 04 03 00 00 fc 04 04     DDD.............
    53a8:	04 04 00 07 00 00 00 00 00 00 00 fc 04 04 04 fc     ................
    53b8:	00 00 0c 06 05 04 04 04 07 0c 00 fc 44 44 44 04     ............DDD.
    53c8:	00 00 07 04 04 04 04 00 00 04 08 90 60 fc 60 90     ............`.`.
    53d8:	08 04 00 04 02 01 00 00 07 00 00 01 02 04 00 00     ................
    53e8:	08 04 44 44 b8 00 02 04 04 04 04 03 00 fc 00 80     ..DD............
    53f8:	60 18 fc 00 00 07 03 00 00 00 07 00 00 fc 01 82     `...............
    5408:	62 19 fc 00 00 07 03 00 00 00 07 00 00 fc 60 90     b.............`.
    5418:	08 04 00 00 07 00 00 01 02 04 00 00 f8 04 04 04     ................
    5428:	fc 00 00 04 03 00 00 00 07 00 00 fc 30 c0 00 c0     ............0...
    5438:	30 fc 00 00 07 00 00 03 00 00 07 00 00 fc 40 40     0.............@@
    5448:	40 40 fc 00 00 07 00 00 00 00 07 00 00 f8 04 04     @@..............
    5458:	04 04 f8 00 00 03 04 04 04 04 03 00 00 fc 04 04     ................
    5468:	04 04 fc 00 00 07 00 00 00 00 07 00 00 fc 44 44     ..............DD
    5478:	44 44 38 00 07 00 00 00 00 00 00 f8 04 04 04 04     DD8.............
    5488:	08 00 03 04 04 04 04 02 00 04 04 fc 04 04 00 00     ................
    5498:	00 00 07 00 00 00 00 7c 80 80 80 80 fc 00 00 02     .......|........
    54a8:	04 04 04 04 03 00 00 70 88 88 88 fc 88 88 88 70     .......p.......p
    54b8:	00 00 00 00 00 00 07 00 00 00 00 00 0c 10 a0 40     ...............@
    54c8:	a0 10 0c 06 01 00 00 00 01 06 00 fc 00 00 00 fc     ................
    54d8:	00 00 00 07 04 04 04 07 0c 00 00 7c 80 80 80 80     ...........|....
    54e8:	fc 00 00 00 00 00 00 00 07 00 00 fc 00 00 fc 00     ................
    54f8:	00 fc 00 00 07 04 04 07 04 04 07 00 00 fc 00 00     ................
    5508:	fc 00 00 fc 00 00 00 07 04 04 07 04 04 07 0c 00     ................
    5518:	0c 04 fc 40 40 40 40 80 00 00 07 04 04 04 04 03     ...@@@@.........
    5528:	00 fc 40 40 40 40 80 00 fc 00 00 07 04 04 04 04     ..@@@@..........
    5538:	03 00 07 00 00 fc 40 40 40 40 80 00 07 04 04 04     ......@@@@......
    5548:	04 03 08 04 44 44 44 f8 00 02 04 04 04 04 03 00     ....DDD.........
    5558:	00 fc 40 f8 04 04 04 f8 00 00 07 00 03 04 04 04     ..@.............
    5568:	03 00 00 38 c4 44 44 44 fc 00 00 06 01 00 00 00     ...8.DDD........
    5578:	07 00 00 00 a0 a0 a0 c0 00 03 04 04 04 07 00 e0     ................
    5588:	30 28 28 c4 00 03 04 04 04 03 00 e0 a0 a0 a0 40     0((............@
    5598:	00 07 04 04 04 03 00 e0 20 20 20 00 07 00 00 00     ........   .....
    55a8:	00 c0 20 20 e0 00 0c 07 04 04 07 0c 00 c0 a0 a0     ..  ............
    55b8:	a0 c0 00 03 04 04 04 02 00 20 40 80 e0 80 40 20     ......... @...@ 
    55c8:	00 04 03 00 07 00 03 04 00 40 20 a0 a0 40 00 02     .........@ ..@..
    55d8:	04 04 04 03 00 e0 00 00 80 e0 00 07 02 01 00 07     ................
    55e8:	00 e0 08 10 88 e0 00 07 02 01 00 07 00 e0 80 40     ...............@
    55f8:	20 00 00 07 00 01 02 04 00 00 c0 20 20 e0 00 04      ..........  ...
    5608:	03 00 00 07 00 e0 40 80 00 80 40 e0 00 07 00 00     ......@...@.....
    5618:	03 00 00 07 00 e0 80 80 80 e0 00 07 00 00 00 07     ................
    5628:	00 c0 20 20 20 c0 00 03 04 04 04 03 00 e0 20 20     ..   .........  
    5638:	20 e0 00 07 00 00 00 07 00 e0 20 20 20 c0 00 1f      .........   ...
    5648:	04 04 04 03 00 c0 20 20 20 40 00 03 04 04 04 02     ......   @......
    5658:	20 20 e0 20 20 00 00 07 00 00 00 e0 00 00 e0 00       .  ...........
    5668:	11 12 12 0f 00 c0 20 20 f0 20 20 c0 00 01 02 02     ......  .  .....
    5678:	0f 02 02 01 00 60 80 80 60 00 06 01 01 06 00 e0     .....`..`.......
    5688:	00 00 e0 00 00 07 04 04 07 0c 00 e0 00 00 e0 00     ................
    5698:	00 01 01 07 00 e0 00 00 e0 00 00 e0 00 07 04 04     ................
    56a8:	07 04 04 07 00 e0 00 00 e0 00 00 e0 00 00 07 04     ................
    56b8:	04 07 04 04 07 08 60 20 e0 80 80 80 00 00 00 07     ......` ........
    56c8:	04 04 04 03 00 e0 80 80 80 00 00 e0 00 07 04 04     ................
    56d8:	04 03 00 07 00 e0 80 80 80 00 00 07 04 04 04 03     ................
    56e8:	40 20 a0 a0 c0 00 02 04 04 04 03 00 00 e0 80 c0     @ ..............
    56f8:	20 20 20 c0 00 07 00 03 04 04 04 03 00 c0 20 20        ...........  
    5708:	20 e0 00 04 03 01 01 07 00 c0 a8 a0 a8 c0 00 03      ...............
    5718:	04 04 04 02 08 fc 48 28 20 c0 00 07 00 10 10 0f     ......H( .......
    5728:	00 e0 20 28 24 00 07 00 00 00 00 c0 a0 a0 20 40     .. ($......... @
    5738:	00 03 04 04 04 02 00 40 a0 20 40 00 02 04 05 02     .......@. @.....
    5748:	00 e4 00 07 04 e0 04 00 07 00 00 e4 00 1f 00 00     ................
    5758:	c0 20 20 e0 80 80 80 00 00 04 03 00 00 07 04 04     .  .............
    5768:	04 03 00 e0 80 80 80 e0 80 80 80 00 00 07 00 00     ................
    5778:	00 07 04 04 04 03 08 fc 48 28 28 c0 00 07 00 00     ........H((.....
    5788:	00 07 00 e0 80 48 24 00 00 07 00 01 02 04 00 e4     .....H$.........
    5798:	08 08 e4 00 11 12 12 0f 00 e0 00 00 00 e0 00 07     ................
    57a8:	04 1c 04 07 00 fc 04 04 04 06 00 07 00 00 00 00     ................
    57b8:	00 e0 20 20 30 00 07 00 00 00 00 40 40 40 00 00     ..  0......@@@..
    57c8:	00 00 00 00 40 40 40 40 40 40 00 00 00 00 00 00     ....@@@@@@......
    57d8:	08 10 00 00 00 00 00 10 08 00 00 00 00 00 00 00     ................
    57e8:	08 04 04 08 04 08 00 00 00 00 08 04 08 04 00 00     ................
	...
    5800:	08 04 08 04 20 20 f8 20 20 00 00 07 00 00 20 20     ....  .  .....  
    5810:	f8 20 20 02 02 07 02 02 00 40 e0 e0 40 00 00 00     .  ......@..@...
	...
    5828:	00 00 00 04 00 04 00 04 08 14 94 48 20 10 08 04     ...........H ...
    5838:	00 00 00 02 01 00 02 05 05 02 02 05 05 02 00 00     ................
    5848:	80 40 00 00 00 01 02 04 00 00 00 00 40 80 00 00     .@..........@...
    5858:	00 00 04 02 01 00 a0 f8 a4 24 04 18 00 03 04 04     .........$......
    5868:	04 03 00 fc 18 60 80 00 fc 00 90 a8 90 00 07 00     .....`..........
    5878:	00 00 03 07 00 00 00 00 04 1c 04 00 1c 04 08 04     ................
    5888:	1c 00 00 00 00 00 00 00 00 00                       ..........

00005892 <__ctors_end>:
    5892:	11 24       	eor	r1, r1
    5894:	1f be       	out	0x3f, r1	; 63
    5896:	cf ef       	ldi	r28, 0xFF	; 255
    5898:	d8 e0       	ldi	r29, 0x08	; 8
    589a:	de bf       	out	0x3e, r29	; 62
    589c:	cd bf       	out	0x3d, r28	; 61

0000589e <__do_copy_data>:
    589e:	11 e0       	ldi	r17, 0x01	; 1
    58a0:	a0 e0       	ldi	r26, 0x00	; 0
    58a2:	b1 e0       	ldi	r27, 0x01	; 1
    58a4:	e8 e3       	ldi	r30, 0x38	; 56
    58a6:	fb e6       	ldi	r31, 0x6B	; 107
    58a8:	02 c0       	rjmp	.+4      	; 0x58ae <__do_copy_data+0x10>
    58aa:	05 90       	lpm	r0, Z+
    58ac:	0d 92       	st	X+, r0
    58ae:	a6 34       	cpi	r26, 0x46	; 70
    58b0:	b1 07       	cpc	r27, r17
    58b2:	d9 f7       	brne	.-10     	; 0x58aa <__do_copy_data+0xc>

000058b4 <__do_clear_bss>:
    58b4:	25 e0       	ldi	r18, 0x05	; 5
    58b6:	a6 e4       	ldi	r26, 0x46	; 70
    58b8:	b1 e0       	ldi	r27, 0x01	; 1
    58ba:	01 c0       	rjmp	.+2      	; 0x58be <.do_clear_bss_start>

000058bc <.do_clear_bss_loop>:
    58bc:	1d 92       	st	X+, r1

000058be <.do_clear_bss_start>:
    58be:	af 36       	cpi	r26, 0x6F	; 111
    58c0:	b2 07       	cpc	r27, r18
    58c2:	e1 f7       	brne	.-8      	; 0x58bc <.do_clear_bss_loop>
    58c4:	0e 94 c4 33 	call	0x6788	; 0x6788 <main>
    58c8:	0c 94 9a 35 	jmp	0x6b34	; 0x6b34 <_exit>

000058cc <__bad_interrupt>:
    58cc:	0c 94 00 00 	jmp	0	; 0x0 <__vectors>

000058d0 <i2c_byte_out>:
{
    if (__(display)->font)
        return pgm_read_word(__(display)->font + 2);
        
    return 0;
}
    58d0:	cf 93       	push	r28
    58d2:	df 93       	push	r29
    58d4:	00 d0       	rcall	.+0      	; 0x58d6 <i2c_byte_out+0x6>
    58d6:	1f 92       	push	r1
    58d8:	cd b7       	in	r28, 0x3d	; 61
    58da:	de b7       	in	r29, 0x3e	; 62
    58dc:	8b 83       	std	Y+3, r24	; 0x03
    58de:	8b e2       	ldi	r24, 0x2B	; 43
    58e0:	90 e0       	ldi	r25, 0x00	; 0
    58e2:	fc 01       	movw	r30, r24
    58e4:	80 81       	ld	r24, Z
    58e6:	83 7f       	andi	r24, 0xF3	; 243
    58e8:	8a 83       	std	Y+2, r24	; 0x02
    58ea:	19 82       	std	Y+1, r1	; 0x01
    58ec:	26 c0       	rjmp	.+76     	; 0x593a <i2c_byte_out+0x6a>
    58ee:	8a 81       	ldd	r24, Y+2	; 0x02
    58f0:	8b 7f       	andi	r24, 0xFB	; 251
    58f2:	8a 83       	std	Y+2, r24	; 0x02
    58f4:	8b 81       	ldd	r24, Y+3	; 0x03
    58f6:	88 23       	and	r24, r24
    58f8:	1c f4       	brge	.+6      	; 0x5900 <i2c_byte_out+0x30>
    58fa:	8a 81       	ldd	r24, Y+2	; 0x02
    58fc:	84 60       	ori	r24, 0x04	; 4
    58fe:	8a 83       	std	Y+2, r24	; 0x02
    5900:	8b e2       	ldi	r24, 0x2B	; 43
    5902:	90 e0       	ldi	r25, 0x00	; 0
    5904:	2a 81       	ldd	r18, Y+2	; 0x02
    5906:	fc 01       	movw	r30, r24
    5908:	20 83       	st	Z, r18
    590a:	8b e2       	ldi	r24, 0x2B	; 43
    590c:	90 e0       	ldi	r25, 0x00	; 0
    590e:	2b e2       	ldi	r18, 0x2B	; 43
    5910:	30 e0       	ldi	r19, 0x00	; 0
    5912:	f9 01       	movw	r30, r18
    5914:	20 81       	ld	r18, Z
    5916:	28 60       	ori	r18, 0x08	; 8
    5918:	fc 01       	movw	r30, r24
    591a:	20 83       	st	Z, r18
    591c:	8b e2       	ldi	r24, 0x2B	; 43
    591e:	90 e0       	ldi	r25, 0x00	; 0
    5920:	2b e2       	ldi	r18, 0x2B	; 43
    5922:	30 e0       	ldi	r19, 0x00	; 0
    5924:	f9 01       	movw	r30, r18
    5926:	20 81       	ld	r18, Z
    5928:	27 7f       	andi	r18, 0xF7	; 247
    592a:	fc 01       	movw	r30, r24
    592c:	20 83       	st	Z, r18
    592e:	8b 81       	ldd	r24, Y+3	; 0x03
    5930:	88 0f       	add	r24, r24
    5932:	8b 83       	std	Y+3, r24	; 0x03
    5934:	89 81       	ldd	r24, Y+1	; 0x01
    5936:	8f 5f       	subi	r24, 0xFF	; 255
    5938:	89 83       	std	Y+1, r24	; 0x01
    593a:	89 81       	ldd	r24, Y+1	; 0x01
    593c:	88 30       	cpi	r24, 0x08	; 8
    593e:	b8 f2       	brcs	.-82     	; 0x58ee <i2c_byte_out+0x1e>
    5940:	8b e2       	ldi	r24, 0x2B	; 43
    5942:	90 e0       	ldi	r25, 0x00	; 0
    5944:	2a 81       	ldd	r18, Y+2	; 0x02
    5946:	2b 7f       	andi	r18, 0xFB	; 251
    5948:	fc 01       	movw	r30, r24
    594a:	20 83       	st	Z, r18
    594c:	8b e2       	ldi	r24, 0x2B	; 43
    594e:	90 e0       	ldi	r25, 0x00	; 0
    5950:	2b e2       	ldi	r18, 0x2B	; 43
    5952:	30 e0       	ldi	r19, 0x00	; 0
    5954:	f9 01       	movw	r30, r18
    5956:	20 81       	ld	r18, Z
    5958:	28 60       	ori	r18, 0x08	; 8
    595a:	fc 01       	movw	r30, r24
    595c:	20 83       	st	Z, r18
    595e:	8b e2       	ldi	r24, 0x2B	; 43
    5960:	90 e0       	ldi	r25, 0x00	; 0
    5962:	2b e2       	ldi	r18, 0x2B	; 43
    5964:	30 e0       	ldi	r19, 0x00	; 0
    5966:	f9 01       	movw	r30, r18
    5968:	20 81       	ld	r18, Z
    596a:	27 7f       	andi	r18, 0xF7	; 247
    596c:	fc 01       	movw	r30, r24
    596e:	20 83       	st	Z, r18
    5970:	00 00       	nop
    5972:	0f 90       	pop	r0
    5974:	0f 90       	pop	r0
    5976:	0f 90       	pop	r0
    5978:	df 91       	pop	r29
    597a:	cf 91       	pop	r28
    597c:	08 95       	ret

0000597e <i2c_start>:
    597e:	cf 93       	push	r28
    5980:	df 93       	push	r29
    5982:	1f 92       	push	r1
    5984:	cd b7       	in	r28, 0x3d	; 61
    5986:	de b7       	in	r29, 0x3e	; 62
    5988:	89 83       	std	Y+1, r24	; 0x01
    598a:	8b e2       	ldi	r24, 0x2B	; 43
    598c:	90 e0       	ldi	r25, 0x00	; 0
    598e:	2b e2       	ldi	r18, 0x2B	; 43
    5990:	30 e0       	ldi	r19, 0x00	; 0
    5992:	f9 01       	movw	r30, r18
    5994:	20 81       	ld	r18, Z
    5996:	2c 60       	ori	r18, 0x0C	; 12
    5998:	fc 01       	movw	r30, r24
    599a:	20 83       	st	Z, r18
    599c:	8a e2       	ldi	r24, 0x2A	; 42
    599e:	90 e0       	ldi	r25, 0x00	; 0
    59a0:	2a e2       	ldi	r18, 0x2A	; 42
    59a2:	30 e0       	ldi	r19, 0x00	; 0
    59a4:	f9 01       	movw	r30, r18
    59a6:	20 81       	ld	r18, Z
    59a8:	2c 60       	ori	r18, 0x0C	; 12
    59aa:	fc 01       	movw	r30, r24
    59ac:	20 83       	st	Z, r18
    59ae:	8b e2       	ldi	r24, 0x2B	; 43
    59b0:	90 e0       	ldi	r25, 0x00	; 0
    59b2:	2b e2       	ldi	r18, 0x2B	; 43
    59b4:	30 e0       	ldi	r19, 0x00	; 0
    59b6:	f9 01       	movw	r30, r18
    59b8:	20 81       	ld	r18, Z
    59ba:	2b 7f       	andi	r18, 0xFB	; 251
    59bc:	fc 01       	movw	r30, r24
    59be:	20 83       	st	Z, r18
    59c0:	8b e2       	ldi	r24, 0x2B	; 43
    59c2:	90 e0       	ldi	r25, 0x00	; 0
    59c4:	2b e2       	ldi	r18, 0x2B	; 43
    59c6:	30 e0       	ldi	r19, 0x00	; 0
    59c8:	f9 01       	movw	r30, r18
    59ca:	20 81       	ld	r18, Z
    59cc:	27 7f       	andi	r18, 0xF7	; 247
    59ce:	fc 01       	movw	r30, r24
    59d0:	20 83       	st	Z, r18
    59d2:	89 81       	ldd	r24, Y+1	; 0x01
    59d4:	0e 94 68 2c 	call	0x58d0	; 0x58d0 <i2c_byte_out>
    59d8:	00 00       	nop
    59da:	0f 90       	pop	r0
    59dc:	df 91       	pop	r29
    59de:	cf 91       	pop	r28
    59e0:	08 95       	ret

000059e2 <i2c_write>:
    59e2:	cf 93       	push	r28
    59e4:	df 93       	push	r29
    59e6:	00 d0       	rcall	.+0      	; 0x59e8 <i2c_write+0x6>
    59e8:	00 d0       	rcall	.+0      	; 0x59ea <i2c_write+0x8>
    59ea:	00 d0       	rcall	.+0      	; 0x59ec <i2c_write+0xa>
    59ec:	cd b7       	in	r28, 0x3d	; 61
    59ee:	de b7       	in	r29, 0x3e	; 62
    59f0:	9d 83       	std	Y+5, r25	; 0x05
    59f2:	8c 83       	std	Y+4, r24	; 0x04
    59f4:	6e 83       	std	Y+6, r22	; 0x06
    59f6:	8b e2       	ldi	r24, 0x2B	; 43
    59f8:	90 e0       	ldi	r25, 0x00	; 0
    59fa:	fc 01       	movw	r30, r24
    59fc:	80 81       	ld	r24, Z
    59fe:	83 7f       	andi	r24, 0xF3	; 243
    5a00:	8b 83       	std	Y+3, r24	; 0x03
    5a02:	7f c0       	rjmp	.+254    	; 0x5b02 <i2c_write+0x120>
    5a04:	8c 81       	ldd	r24, Y+4	; 0x04
    5a06:	9d 81       	ldd	r25, Y+5	; 0x05
    5a08:	9c 01       	movw	r18, r24
    5a0a:	2f 5f       	subi	r18, 0xFF	; 255
    5a0c:	3f 4f       	sbci	r19, 0xFF	; 255
    5a0e:	3d 83       	std	Y+5, r19	; 0x05
    5a10:	2c 83       	std	Y+4, r18	; 0x04
    5a12:	fc 01       	movw	r30, r24
    5a14:	80 81       	ld	r24, Z
    5a16:	8a 83       	std	Y+2, r24	; 0x02
    5a18:	8a 81       	ldd	r24, Y+2	; 0x02
    5a1a:	88 23       	and	r24, r24
    5a1c:	19 f0       	breq	.+6      	; 0x5a24 <i2c_write+0x42>
    5a1e:	8a 81       	ldd	r24, Y+2	; 0x02
    5a20:	8f 3f       	cpi	r24, 0xFF	; 255
    5a22:	49 f5       	brne	.+82     	; 0x5a76 <i2c_write+0x94>
    5a24:	8b 81       	ldd	r24, Y+3	; 0x03
    5a26:	8b 7f       	andi	r24, 0xFB	; 251
    5a28:	8b 83       	std	Y+3, r24	; 0x03
    5a2a:	8a 81       	ldd	r24, Y+2	; 0x02
    5a2c:	88 23       	and	r24, r24
    5a2e:	1c f4       	brge	.+6      	; 0x5a36 <i2c_write+0x54>
    5a30:	8b 81       	ldd	r24, Y+3	; 0x03
    5a32:	84 60       	ori	r24, 0x04	; 4
    5a34:	8b 83       	std	Y+3, r24	; 0x03
    5a36:	8b e2       	ldi	r24, 0x2B	; 43
    5a38:	90 e0       	ldi	r25, 0x00	; 0
    5a3a:	2b 81       	ldd	r18, Y+3	; 0x03
    5a3c:	fc 01       	movw	r30, r24
    5a3e:	20 83       	st	Z, r18
    5a40:	19 82       	std	Y+1, r1	; 0x01
    5a42:	15 c0       	rjmp	.+42     	; 0x5a6e <i2c_write+0x8c>
    5a44:	8b e2       	ldi	r24, 0x2B	; 43
    5a46:	90 e0       	ldi	r25, 0x00	; 0
    5a48:	2b e2       	ldi	r18, 0x2B	; 43
    5a4a:	30 e0       	ldi	r19, 0x00	; 0
    5a4c:	f9 01       	movw	r30, r18
    5a4e:	20 81       	ld	r18, Z
    5a50:	28 60       	ori	r18, 0x08	; 8
    5a52:	fc 01       	movw	r30, r24
    5a54:	20 83       	st	Z, r18
    5a56:	8b e2       	ldi	r24, 0x2B	; 43
    5a58:	90 e0       	ldi	r25, 0x00	; 0
    5a5a:	2b e2       	ldi	r18, 0x2B	; 43
    5a5c:	30 e0       	ldi	r19, 0x00	; 0
    5a5e:	f9 01       	movw	r30, r18
    5a60:	20 81       	ld	r18, Z
    5a62:	27 7f       	andi	r18, 0xF7	; 247
    5a64:	fc 01       	movw	r30, r24
    5a66:	20 83       	st	Z, r18
    5a68:	89 81       	ldd	r24, Y+1	; 0x01
    5a6a:	8f 5f       	subi	r24, 0xFF	; 255
    5a6c:	89 83       	std	Y+1, r24	; 0x01
    5a6e:	89 81       	ldd	r24, Y+1	; 0x01
    5a70:	88 30       	cpi	r24, 0x08	; 8
    5a72:	40 f3       	brcs	.-48     	; 0x5a44 <i2c_write+0x62>
    5a74:	2b c0       	rjmp	.+86     	; 0x5acc <i2c_write+0xea>
    5a76:	19 82       	std	Y+1, r1	; 0x01
    5a78:	26 c0       	rjmp	.+76     	; 0x5ac6 <i2c_write+0xe4>
    5a7a:	8b 81       	ldd	r24, Y+3	; 0x03
    5a7c:	8b 7f       	andi	r24, 0xFB	; 251
    5a7e:	8b 83       	std	Y+3, r24	; 0x03
    5a80:	8a 81       	ldd	r24, Y+2	; 0x02
    5a82:	88 23       	and	r24, r24
    5a84:	1c f4       	brge	.+6      	; 0x5a8c <i2c_write+0xaa>
    5a86:	8b 81       	ldd	r24, Y+3	; 0x03
    5a88:	84 60       	ori	r24, 0x04	; 4
    5a8a:	8b 83       	std	Y+3, r24	; 0x03
    5a8c:	8b e2       	ldi	r24, 0x2B	; 43
    5a8e:	90 e0       	ldi	r25, 0x00	; 0
    5a90:	2b 81       	ldd	r18, Y+3	; 0x03
    5a92:	fc 01       	movw	r30, r24
    5a94:	20 83       	st	Z, r18
    5a96:	8b e2       	ldi	r24, 0x2B	; 43
    5a98:	90 e0       	ldi	r25, 0x00	; 0
    5a9a:	2b e2       	ldi	r18, 0x2B	; 43
    5a9c:	30 e0       	ldi	r19, 0x00	; 0
    5a9e:	f9 01       	movw	r30, r18
    5aa0:	20 81       	ld	r18, Z
    5aa2:	28 60       	ori	r18, 0x08	; 8
    5aa4:	fc 01       	movw	r30, r24
    5aa6:	20 83       	st	Z, r18
    5aa8:	8b e2       	ldi	r24, 0x2B	; 43
    5aaa:	90 e0       	ldi	r25, 0x00	; 0
    5aac:	2b e2       	ldi	r18, 0x2B	; 43
    5aae:	30 e0       	ldi	r19, 0x00	; 0
    5ab0:	f9 01       	movw	r30, r18
    5ab2:	20 81       	ld	r18, Z
    5ab4:	27 7f       	andi	r18, 0xF7	; 247
    5ab6:	fc 01       	movw	r30, r24
    5ab8:	20 83       	st	Z, r18
    5aba:	8a 81       	ldd	r24, Y+2	; 0x02
    5abc:	88 0f       	add	r24, r24
    5abe:	8a 83       	std	Y+2, r24	; 0x02
    5ac0:	89 81       	ldd	r24, Y+1	; 0x01
    5ac2:	8f 5f       	subi	r24, 0xFF	; 255
    5ac4:	89 83       	std	Y+1, r24	; 0x01
    5ac6:	89 81       	ldd	r24, Y+1	; 0x01
    5ac8:	88 30       	cpi	r24, 0x08	; 8
    5aca:	b8 f2       	brcs	.-82     	; 0x5a7a <i2c_write+0x98>
    5acc:	8b e2       	ldi	r24, 0x2B	; 43
    5ace:	90 e0       	ldi	r25, 0x00	; 0
    5ad0:	2b e2       	ldi	r18, 0x2B	; 43
    5ad2:	30 e0       	ldi	r19, 0x00	; 0
    5ad4:	f9 01       	movw	r30, r18
    5ad6:	20 81       	ld	r18, Z
    5ad8:	2b 7f       	andi	r18, 0xFB	; 251
    5ada:	fc 01       	movw	r30, r24
    5adc:	20 83       	st	Z, r18
    5ade:	8b e2       	ldi	r24, 0x2B	; 43
    5ae0:	90 e0       	ldi	r25, 0x00	; 0
    5ae2:	2b e2       	ldi	r18, 0x2B	; 43
    5ae4:	30 e0       	ldi	r19, 0x00	; 0
    5ae6:	f9 01       	movw	r30, r18
    5ae8:	20 81       	ld	r18, Z
    5aea:	28 60       	ori	r18, 0x08	; 8
    5aec:	fc 01       	movw	r30, r24
    5aee:	20 83       	st	Z, r18
    5af0:	8b e2       	ldi	r24, 0x2B	; 43
    5af2:	90 e0       	ldi	r25, 0x00	; 0
    5af4:	2b e2       	ldi	r18, 0x2B	; 43
    5af6:	30 e0       	ldi	r19, 0x00	; 0
    5af8:	f9 01       	movw	r30, r18
    5afa:	20 81       	ld	r18, Z
    5afc:	27 7f       	andi	r18, 0xF7	; 247
    5afe:	fc 01       	movw	r30, r24
    5b00:	20 83       	st	Z, r18
    5b02:	8e 81       	ldd	r24, Y+6	; 0x06
    5b04:	9f ef       	ldi	r25, 0xFF	; 255
    5b06:	98 0f       	add	r25, r24
    5b08:	9e 83       	std	Y+6, r25	; 0x06
    5b0a:	88 23       	and	r24, r24
    5b0c:	09 f0       	breq	.+2      	; 0x5b10 <i2c_write+0x12e>
    5b0e:	7a cf       	rjmp	.-268    	; 0x5a04 <i2c_write+0x22>
    5b10:	00 00       	nop
    5b12:	26 96       	adiw	r28, 0x06	; 6
    5b14:	0f b6       	in	r0, 0x3f	; 63
    5b16:	f8 94       	cli
    5b18:	de bf       	out	0x3e, r29	; 62
    5b1a:	0f be       	out	0x3f, r0	; 63
    5b1c:	cd bf       	out	0x3d, r28	; 61
    5b1e:	df 91       	pop	r29
    5b20:	cf 91       	pop	r28
    5b22:	08 95       	ret

00005b24 <i2c_stop>:
    5b24:	cf 93       	push	r28
    5b26:	df 93       	push	r29
    5b28:	cd b7       	in	r28, 0x3d	; 61
    5b2a:	de b7       	in	r29, 0x3e	; 62
    5b2c:	8b e2       	ldi	r24, 0x2B	; 43
    5b2e:	90 e0       	ldi	r25, 0x00	; 0
    5b30:	2b e2       	ldi	r18, 0x2B	; 43
    5b32:	30 e0       	ldi	r19, 0x00	; 0
    5b34:	f9 01       	movw	r30, r18
    5b36:	20 81       	ld	r18, Z
    5b38:	2b 7f       	andi	r18, 0xFB	; 251
    5b3a:	fc 01       	movw	r30, r24
    5b3c:	20 83       	st	Z, r18
    5b3e:	8b e2       	ldi	r24, 0x2B	; 43
    5b40:	90 e0       	ldi	r25, 0x00	; 0
    5b42:	2b e2       	ldi	r18, 0x2B	; 43
    5b44:	30 e0       	ldi	r19, 0x00	; 0
    5b46:	f9 01       	movw	r30, r18
    5b48:	20 81       	ld	r18, Z
    5b4a:	28 60       	ori	r18, 0x08	; 8
    5b4c:	fc 01       	movw	r30, r24
    5b4e:	20 83       	st	Z, r18
    5b50:	8b e2       	ldi	r24, 0x2B	; 43
    5b52:	90 e0       	ldi	r25, 0x00	; 0
    5b54:	2b e2       	ldi	r18, 0x2B	; 43
    5b56:	30 e0       	ldi	r19, 0x00	; 0
    5b58:	f9 01       	movw	r30, r18
    5b5a:	20 81       	ld	r18, Z
    5b5c:	24 60       	ori	r18, 0x04	; 4
    5b5e:	fc 01       	movw	r30, r24
    5b60:	20 83       	st	Z, r18
    5b62:	8a e2       	ldi	r24, 0x2A	; 42
    5b64:	90 e0       	ldi	r25, 0x00	; 0
    5b66:	2a e2       	ldi	r18, 0x2A	; 42
    5b68:	30 e0       	ldi	r19, 0x00	; 0
    5b6a:	f9 01       	movw	r30, r18
    5b6c:	20 81       	ld	r18, Z
    5b6e:	23 7f       	andi	r18, 0xF3	; 243
    5b70:	fc 01       	movw	r30, r24
    5b72:	20 83       	st	Z, r18
    5b74:	00 00       	nop
    5b76:	df 91       	pop	r29
    5b78:	cf 91       	pop	r28
    5b7a:	08 95       	ret

00005b7c <i2c_send>:
    5b7c:	cf 93       	push	r28
    5b7e:	df 93       	push	r29
    5b80:	00 d0       	rcall	.+0      	; 0x5b82 <i2c_send+0x6>
    5b82:	00 d0       	rcall	.+0      	; 0x5b84 <i2c_send+0x8>
    5b84:	1f 92       	push	r1
    5b86:	cd b7       	in	r28, 0x3d	; 61
    5b88:	de b7       	in	r29, 0x3e	; 62
    5b8a:	89 83       	std	Y+1, r24	; 0x01
    5b8c:	7b 83       	std	Y+3, r23	; 0x03
    5b8e:	6a 83       	std	Y+2, r22	; 0x02
    5b90:	5d 83       	std	Y+5, r21	; 0x05
    5b92:	4c 83       	std	Y+4, r20	; 0x04
    5b94:	89 81       	ldd	r24, Y+1	; 0x01
    5b96:	0e 94 bf 2c 	call	0x597e	; 0x597e <i2c_start>
    5b9a:	2c 81       	ldd	r18, Y+4	; 0x04
    5b9c:	8a 81       	ldd	r24, Y+2	; 0x02
    5b9e:	9b 81       	ldd	r25, Y+3	; 0x03
    5ba0:	62 2f       	mov	r22, r18
    5ba2:	0e 94 f1 2c 	call	0x59e2	; 0x59e2 <i2c_write>
    5ba6:	0e 94 92 2d 	call	0x5b24	; 0x5b24 <i2c_stop>
    5baa:	00 00       	nop
    5bac:	0f 90       	pop	r0
    5bae:	0f 90       	pop	r0
    5bb0:	0f 90       	pop	r0
    5bb2:	0f 90       	pop	r0
    5bb4:	0f 90       	pop	r0
    5bb6:	df 91       	pop	r29
    5bb8:	cf 91       	pop	r28
    5bba:	08 95       	ret

00005bbc <disp_command>:
    5bbc:	cf 93       	push	r28
    5bbe:	df 93       	push	r29
    5bc0:	00 d0       	rcall	.+0      	; 0x5bc2 <disp_command+0x6>
    5bc2:	00 d0       	rcall	.+0      	; 0x5bc4 <disp_command+0x8>
    5bc4:	cd b7       	in	r28, 0x3d	; 61
    5bc6:	de b7       	in	r29, 0x3e	; 62
    5bc8:	8b 83       	std	Y+3, r24	; 0x03
    5bca:	6c 83       	std	Y+4, r22	; 0x04
    5bcc:	19 82       	std	Y+1, r1	; 0x01
    5bce:	8c 81       	ldd	r24, Y+4	; 0x04
    5bd0:	8a 83       	std	Y+2, r24	; 0x02
    5bd2:	42 e0       	ldi	r20, 0x02	; 2
    5bd4:	50 e0       	ldi	r21, 0x00	; 0
    5bd6:	ce 01       	movw	r24, r28
    5bd8:	01 96       	adiw	r24, 0x01	; 1
    5bda:	bc 01       	movw	r22, r24
    5bdc:	8b 81       	ldd	r24, Y+3	; 0x03
    5bde:	0e 94 be 2d 	call	0x5b7c	; 0x5b7c <i2c_send>
    5be2:	00 00       	nop
    5be4:	0f 90       	pop	r0
    5be6:	0f 90       	pop	r0
    5be8:	0f 90       	pop	r0
    5bea:	0f 90       	pop	r0
    5bec:	df 91       	pop	r29
    5bee:	cf 91       	pop	r28
    5bf0:	08 95       	ret

00005bf2 <disp_send_buffer>:
    5bf2:	cf 93       	push	r28
    5bf4:	df 93       	push	r29
    5bf6:	00 d0       	rcall	.+0      	; 0x5bf8 <disp_send_buffer+0x6>
    5bf8:	00 d0       	rcall	.+0      	; 0x5bfa <disp_send_buffer+0x8>
    5bfa:	1f 92       	push	r1
    5bfc:	cd b7       	in	r28, 0x3d	; 61
    5bfe:	de b7       	in	r29, 0x3e	; 62
    5c00:	9d 83       	std	Y+5, r25	; 0x05
    5c02:	8c 83       	std	Y+4, r24	; 0x04
    5c04:	8c 81       	ldd	r24, Y+4	; 0x04
    5c06:	9d 81       	ldd	r25, Y+5	; 0x05
    5c08:	fc 01       	movw	r30, r24
    5c0a:	82 81       	ldd	r24, Z+2	; 0x02
    5c0c:	86 95       	lsr	r24
    5c0e:	86 95       	lsr	r24
    5c10:	86 95       	lsr	r24
    5c12:	8a 83       	std	Y+2, r24	; 0x02
    5c14:	8c 81       	ldd	r24, Y+4	; 0x04
    5c16:	9d 81       	ldd	r25, Y+5	; 0x05
    5c18:	fc 01       	movw	r30, r24
    5c1a:	82 81       	ldd	r24, Z+2	; 0x02
    5c1c:	28 2f       	mov	r18, r24
    5c1e:	30 e0       	ldi	r19, 0x00	; 0
    5c20:	8c 81       	ldd	r24, Y+4	; 0x04
    5c22:	9d 81       	ldd	r25, Y+5	; 0x05
    5c24:	fc 01       	movw	r30, r24
    5c26:	84 81       	ldd	r24, Z+4	; 0x04
    5c28:	88 2f       	mov	r24, r24
    5c2a:	90 e0       	ldi	r25, 0x00	; 0
    5c2c:	82 0f       	add	r24, r18
    5c2e:	93 1f       	adc	r25, r19
    5c30:	01 97       	sbiw	r24, 0x01	; 1
    5c32:	99 23       	and	r25, r25
    5c34:	0c f4       	brge	.+2      	; 0x5c38 <disp_send_buffer+0x46>
    5c36:	07 96       	adiw	r24, 0x07	; 7
    5c38:	95 95       	asr	r25
    5c3a:	87 95       	ror	r24
    5c3c:	95 95       	asr	r25
    5c3e:	87 95       	ror	r24
    5c40:	95 95       	asr	r25
    5c42:	87 95       	ror	r24
    5c44:	8b 83       	std	Y+3, r24	; 0x03
    5c46:	8c 81       	ldd	r24, Y+4	; 0x04
    5c48:	9d 81       	ldd	r25, Y+5	; 0x05
    5c4a:	fc 01       	movw	r30, r24
    5c4c:	80 81       	ld	r24, Z
    5c4e:	61 e2       	ldi	r22, 0x21	; 33
    5c50:	0e 94 de 2d 	call	0x5bbc	; 0x5bbc <disp_command>
    5c54:	8c 81       	ldd	r24, Y+4	; 0x04
    5c56:	9d 81       	ldd	r25, Y+5	; 0x05
    5c58:	fc 01       	movw	r30, r24
    5c5a:	21 81       	ldd	r18, Z+1	; 0x01
    5c5c:	8c 81       	ldd	r24, Y+4	; 0x04
    5c5e:	9d 81       	ldd	r25, Y+5	; 0x05
    5c60:	fc 01       	movw	r30, r24
    5c62:	80 81       	ld	r24, Z
    5c64:	62 2f       	mov	r22, r18
    5c66:	0e 94 de 2d 	call	0x5bbc	; 0x5bbc <disp_command>
    5c6a:	8c 81       	ldd	r24, Y+4	; 0x04
    5c6c:	9d 81       	ldd	r25, Y+5	; 0x05
    5c6e:	fc 01       	movw	r30, r24
    5c70:	21 81       	ldd	r18, Z+1	; 0x01
    5c72:	8c 81       	ldd	r24, Y+4	; 0x04
    5c74:	9d 81       	ldd	r25, Y+5	; 0x05
    5c76:	fc 01       	movw	r30, r24
    5c78:	83 81       	ldd	r24, Z+3	; 0x03
    5c7a:	82 0f       	add	r24, r18
    5c7c:	2f ef       	ldi	r18, 0xFF	; 255
    5c7e:	28 0f       	add	r18, r24
    5c80:	8c 81       	ldd	r24, Y+4	; 0x04
    5c82:	9d 81       	ldd	r25, Y+5	; 0x05
    5c84:	fc 01       	movw	r30, r24
    5c86:	80 81       	ld	r24, Z
    5c88:	62 2f       	mov	r22, r18
    5c8a:	0e 94 de 2d 	call	0x5bbc	; 0x5bbc <disp_command>
    5c8e:	8c 81       	ldd	r24, Y+4	; 0x04
    5c90:	9d 81       	ldd	r25, Y+5	; 0x05
    5c92:	fc 01       	movw	r30, r24
    5c94:	80 81       	ld	r24, Z
    5c96:	62 e2       	ldi	r22, 0x22	; 34
    5c98:	0e 94 de 2d 	call	0x5bbc	; 0x5bbc <disp_command>
    5c9c:	8c 81       	ldd	r24, Y+4	; 0x04
    5c9e:	9d 81       	ldd	r25, Y+5	; 0x05
    5ca0:	fc 01       	movw	r30, r24
    5ca2:	80 81       	ld	r24, Z
    5ca4:	6a 81       	ldd	r22, Y+2	; 0x02
    5ca6:	0e 94 de 2d 	call	0x5bbc	; 0x5bbc <disp_command>
    5caa:	8c 81       	ldd	r24, Y+4	; 0x04
    5cac:	9d 81       	ldd	r25, Y+5	; 0x05
    5cae:	fc 01       	movw	r30, r24
    5cb0:	80 81       	ld	r24, Z
    5cb2:	6b 81       	ldd	r22, Y+3	; 0x03
    5cb4:	0e 94 de 2d 	call	0x5bbc	; 0x5bbc <disp_command>
    5cb8:	8a 81       	ldd	r24, Y+2	; 0x02
    5cba:	89 83       	std	Y+1, r24	; 0x01
    5cbc:	27 c0       	rjmp	.+78     	; 0x5d0c <disp_send_buffer+0x11a>
    5cbe:	8c 81       	ldd	r24, Y+4	; 0x04
    5cc0:	9d 81       	ldd	r25, Y+5	; 0x05
    5cc2:	fc 01       	movw	r30, r24
    5cc4:	80 81       	ld	r24, Z
    5cc6:	0e 94 bf 2c 	call	0x597e	; 0x597e <i2c_start>
    5cca:	80 e4       	ldi	r24, 0x40	; 64
    5ccc:	0e 94 68 2c 	call	0x58d0	; 0x58d0 <i2c_byte_out>
    5cd0:	8c 81       	ldd	r24, Y+4	; 0x04
    5cd2:	9d 81       	ldd	r25, Y+5	; 0x05
    5cd4:	fc 01       	movw	r30, r24
    5cd6:	43 81       	ldd	r20, Z+3	; 0x03
    5cd8:	8c 81       	ldd	r24, Y+4	; 0x04
    5cda:	9d 81       	ldd	r25, Y+5	; 0x05
    5cdc:	fc 01       	movw	r30, r24
    5cde:	81 81       	ldd	r24, Z+1	; 0x01
    5ce0:	88 2f       	mov	r24, r24
    5ce2:	90 e0       	ldi	r25, 0x00	; 0
    5ce4:	29 81       	ldd	r18, Y+1	; 0x01
    5ce6:	22 2f       	mov	r18, r18
    5ce8:	30 e0       	ldi	r19, 0x00	; 0
    5cea:	36 95       	lsr	r19
    5cec:	32 2f       	mov	r19, r18
    5cee:	22 27       	eor	r18, r18
    5cf0:	37 95       	ror	r19
    5cf2:	27 95       	ror	r18
    5cf4:	82 0f       	add	r24, r18
    5cf6:	93 1f       	adc	r25, r19
    5cf8:	89 59       	subi	r24, 0x99	; 153
    5cfa:	9e 4f       	sbci	r25, 0xFE	; 254
    5cfc:	64 2f       	mov	r22, r20
    5cfe:	0e 94 f1 2c 	call	0x59e2	; 0x59e2 <i2c_write>
    5d02:	0e 94 92 2d 	call	0x5b24	; 0x5b24 <i2c_stop>
    5d06:	89 81       	ldd	r24, Y+1	; 0x01
    5d08:	8f 5f       	subi	r24, 0xFF	; 255
    5d0a:	89 83       	std	Y+1, r24	; 0x01
    5d0c:	99 81       	ldd	r25, Y+1	; 0x01
    5d0e:	8b 81       	ldd	r24, Y+3	; 0x03
    5d10:	89 17       	cp	r24, r25
    5d12:	a8 f6       	brcc	.-86     	; 0x5cbe <disp_send_buffer+0xcc>
    5d14:	00 00       	nop
    5d16:	0f 90       	pop	r0
    5d18:	0f 90       	pop	r0
    5d1a:	0f 90       	pop	r0
    5d1c:	0f 90       	pop	r0
    5d1e:	0f 90       	pop	r0
    5d20:	df 91       	pop	r29
    5d22:	cf 91       	pop	r28
    5d24:	08 95       	ret

00005d26 <disp_init>:
    5d26:	cf 93       	push	r28
    5d28:	df 93       	push	r29
    5d2a:	00 d0       	rcall	.+0      	; 0x5d2c <disp_init+0x6>
    5d2c:	1f 92       	push	r1
    5d2e:	cd b7       	in	r28, 0x3d	; 61
    5d30:	de b7       	in	r29, 0x3e	; 62
    5d32:	8b 83       	std	Y+3, r24	; 0x03
    5d34:	90 91 46 01 	lds	r25, 0x0146	; 0x800146 <__data_end>
    5d38:	8b 81       	ldd	r24, Y+3	; 0x03
    5d3a:	98 17       	cp	r25, r24
    5d3c:	21 f0       	breq	.+8      	; 0x5d46 <disp_init+0x20>
    5d3e:	80 91 46 01 	lds	r24, 0x0146	; 0x800146 <__data_end>
    5d42:	88 23       	and	r24, r24
    5d44:	29 f4       	brne	.+10     	; 0x5d50 <disp_init+0x2a>
    5d46:	86 e4       	ldi	r24, 0x46	; 70
    5d48:	91 e0       	ldi	r25, 0x01	; 1
    5d4a:	9a 83       	std	Y+2, r25	; 0x02
    5d4c:	89 83       	std	Y+1, r24	; 0x01
    5d4e:	04 c0       	rjmp	.+8      	; 0x5d58 <disp_init+0x32>
    5d50:	80 e5       	ldi	r24, 0x50	; 80
    5d52:	91 e0       	ldi	r25, 0x01	; 1
    5d54:	9a 83       	std	Y+2, r25	; 0x02
    5d56:	89 83       	std	Y+1, r24	; 0x01
    5d58:	89 81       	ldd	r24, Y+1	; 0x01
    5d5a:	9a 81       	ldd	r25, Y+2	; 0x02
    5d5c:	2b 81       	ldd	r18, Y+3	; 0x03
    5d5e:	fc 01       	movw	r30, r24
    5d60:	20 83       	st	Z, r18
    5d62:	89 81       	ldd	r24, Y+1	; 0x01
    5d64:	9a 81       	ldd	r25, Y+2	; 0x02
    5d66:	fc 01       	movw	r30, r24
    5d68:	17 82       	std	Z+7, r1	; 0x07
    5d6a:	89 81       	ldd	r24, Y+1	; 0x01
    5d6c:	9a 81       	ldd	r25, Y+2	; 0x02
    5d6e:	fc 01       	movw	r30, r24
    5d70:	16 82       	std	Z+6, r1	; 0x06
    5d72:	15 82       	std	Z+5, r1	; 0x05
    5d74:	89 81       	ldd	r24, Y+1	; 0x01
    5d76:	9a 81       	ldd	r25, Y+2	; 0x02
    5d78:	fc 01       	movw	r30, r24
    5d7a:	11 86       	std	Z+9, r1	; 0x09
    5d7c:	10 86       	std	Z+8, r1	; 0x08
    5d7e:	89 81       	ldd	r24, Y+1	; 0x01
    5d80:	9a 81       	ldd	r25, Y+2	; 0x02
    5d82:	fc 01       	movw	r30, r24
    5d84:	11 82       	std	Z+1, r1	; 0x01
    5d86:	89 81       	ldd	r24, Y+1	; 0x01
    5d88:	9a 81       	ldd	r25, Y+2	; 0x02
    5d8a:	fc 01       	movw	r30, r24
    5d8c:	12 82       	std	Z+2, r1	; 0x02
    5d8e:	89 81       	ldd	r24, Y+1	; 0x01
    5d90:	9a 81       	ldd	r25, Y+2	; 0x02
    5d92:	20 e8       	ldi	r18, 0x80	; 128
    5d94:	fc 01       	movw	r30, r24
    5d96:	23 83       	std	Z+3, r18	; 0x03
    5d98:	89 81       	ldd	r24, Y+1	; 0x01
    5d9a:	9a 81       	ldd	r25, Y+2	; 0x02
    5d9c:	20 e4       	ldi	r18, 0x40	; 64
    5d9e:	fc 01       	movw	r30, r24
    5da0:	24 83       	std	Z+4, r18	; 0x04
    5da2:	46 e1       	ldi	r20, 0x16	; 22
    5da4:	50 e0       	ldi	r21, 0x00	; 0
    5da6:	60 e0       	ldi	r22, 0x00	; 0
    5da8:	71 e0       	ldi	r23, 0x01	; 1
    5daa:	8b 81       	ldd	r24, Y+3	; 0x03
    5dac:	0e 94 be 2d 	call	0x5b7c	; 0x5b7c <i2c_send>
    5db0:	0e 94 a6 33 	call	0x674c	; 0x674c <disp_clear>
    5db4:	89 81       	ldd	r24, Y+1	; 0x01
    5db6:	9a 81       	ldd	r25, Y+2	; 0x02
    5db8:	0e 94 f9 2d 	call	0x5bf2	; 0x5bf2 <disp_send_buffer>
    5dbc:	89 81       	ldd	r24, Y+1	; 0x01
    5dbe:	9a 81       	ldd	r25, Y+2	; 0x02
    5dc0:	0f 90       	pop	r0
    5dc2:	0f 90       	pop	r0
    5dc4:	0f 90       	pop	r0
    5dc6:	df 91       	pop	r29
    5dc8:	cf 91       	pop	r28
    5dca:	08 95       	ret

00005dcc <disp_refresh_rect>:
    5dcc:	cf 93       	push	r28
    5dce:	df 93       	push	r29
    5dd0:	00 d0       	rcall	.+0      	; 0x5dd2 <disp_refresh_rect+0x6>
    5dd2:	00 d0       	rcall	.+0      	; 0x5dd4 <disp_refresh_rect+0x8>
    5dd4:	00 d0       	rcall	.+0      	; 0x5dd6 <disp_refresh_rect+0xa>
    5dd6:	cd b7       	in	r28, 0x3d	; 61
    5dd8:	de b7       	in	r29, 0x3e	; 62
    5dda:	9a 83       	std	Y+2, r25	; 0x02
    5ddc:	89 83       	std	Y+1, r24	; 0x01
    5dde:	4b 83       	std	Y+3, r20	; 0x03
    5de0:	5c 83       	std	Y+4, r21	; 0x04
    5de2:	6d 83       	std	Y+5, r22	; 0x05
    5de4:	7e 83       	std	Y+6, r23	; 0x06
    5de6:	0e 94 a6 33 	call	0x674c	; 0x674c <disp_clear>
    5dea:	29 81       	ldd	r18, Y+1	; 0x01
    5dec:	3a 81       	ldd	r19, Y+2	; 0x02
    5dee:	8b 81       	ldd	r24, Y+3	; 0x03
    5df0:	9c 81       	ldd	r25, Y+4	; 0x04
    5df2:	ad 81       	ldd	r26, Y+5	; 0x05
    5df4:	be 81       	ldd	r27, Y+6	; 0x06
    5df6:	f9 01       	movw	r30, r18
    5df8:	81 83       	std	Z+1, r24	; 0x01
    5dfa:	92 83       	std	Z+2, r25	; 0x02
    5dfc:	a3 83       	std	Z+3, r26	; 0x03
    5dfe:	b4 83       	std	Z+4, r27	; 0x04
    5e00:	89 81       	ldd	r24, Y+1	; 0x01
    5e02:	9a 81       	ldd	r25, Y+2	; 0x02
    5e04:	fc 01       	movw	r30, r24
    5e06:	80 85       	ldd	r24, Z+8	; 0x08
    5e08:	91 85       	ldd	r25, Z+9	; 0x09
    5e0a:	89 2b       	or	r24, r25
    5e0c:	49 f0       	breq	.+18     	; 0x5e20 <disp_refresh_rect+0x54>
    5e0e:	89 81       	ldd	r24, Y+1	; 0x01
    5e10:	9a 81       	ldd	r25, Y+2	; 0x02
    5e12:	fc 01       	movw	r30, r24
    5e14:	20 85       	ldd	r18, Z+8	; 0x08
    5e16:	31 85       	ldd	r19, Z+9	; 0x09
    5e18:	89 81       	ldd	r24, Y+1	; 0x01
    5e1a:	9a 81       	ldd	r25, Y+2	; 0x02
    5e1c:	f9 01       	movw	r30, r18
    5e1e:	09 95       	icall
    5e20:	89 81       	ldd	r24, Y+1	; 0x01
    5e22:	9a 81       	ldd	r25, Y+2	; 0x02
    5e24:	0e 94 f9 2d 	call	0x5bf2	; 0x5bf2 <disp_send_buffer>
    5e28:	00 00       	nop
    5e2a:	26 96       	adiw	r28, 0x06	; 6
    5e2c:	0f b6       	in	r0, 0x3f	; 63
    5e2e:	f8 94       	cli
    5e30:	de bf       	out	0x3e, r29	; 62
    5e32:	0f be       	out	0x3f, r0	; 63
    5e34:	cd bf       	out	0x3d, r28	; 61
    5e36:	df 91       	pop	r29
    5e38:	cf 91       	pop	r28
    5e3a:	08 95       	ret

00005e3c <disp_set_paint_handler>:
    5e3c:	cf 93       	push	r28
    5e3e:	df 93       	push	r29
    5e40:	00 d0       	rcall	.+0      	; 0x5e42 <disp_set_paint_handler+0x6>
    5e42:	00 d0       	rcall	.+0      	; 0x5e44 <disp_set_paint_handler+0x8>
    5e44:	cd b7       	in	r28, 0x3d	; 61
    5e46:	de b7       	in	r29, 0x3e	; 62
    5e48:	9a 83       	std	Y+2, r25	; 0x02
    5e4a:	89 83       	std	Y+1, r24	; 0x01
    5e4c:	7c 83       	std	Y+4, r23	; 0x04
    5e4e:	6b 83       	std	Y+3, r22	; 0x03
    5e50:	89 81       	ldd	r24, Y+1	; 0x01
    5e52:	9a 81       	ldd	r25, Y+2	; 0x02
    5e54:	2b 81       	ldd	r18, Y+3	; 0x03
    5e56:	3c 81       	ldd	r19, Y+4	; 0x04
    5e58:	fc 01       	movw	r30, r24
    5e5a:	31 87       	std	Z+9, r19	; 0x09
    5e5c:	20 87       	std	Z+8, r18	; 0x08
    5e5e:	00 00       	nop
    5e60:	0f 90       	pop	r0
    5e62:	0f 90       	pop	r0
    5e64:	0f 90       	pop	r0
    5e66:	0f 90       	pop	r0
    5e68:	df 91       	pop	r29
    5e6a:	cf 91       	pop	r28
    5e6c:	08 95       	ret

00005e6e <disp_set_font>:
    5e6e:	cf 93       	push	r28
    5e70:	df 93       	push	r29
    5e72:	00 d0       	rcall	.+0      	; 0x5e74 <disp_set_font+0x6>
    5e74:	00 d0       	rcall	.+0      	; 0x5e76 <disp_set_font+0x8>
    5e76:	cd b7       	in	r28, 0x3d	; 61
    5e78:	de b7       	in	r29, 0x3e	; 62
    5e7a:	9a 83       	std	Y+2, r25	; 0x02
    5e7c:	89 83       	std	Y+1, r24	; 0x01
    5e7e:	7c 83       	std	Y+4, r23	; 0x04
    5e80:	6b 83       	std	Y+3, r22	; 0x03
    5e82:	89 81       	ldd	r24, Y+1	; 0x01
    5e84:	9a 81       	ldd	r25, Y+2	; 0x02
    5e86:	2b 81       	ldd	r18, Y+3	; 0x03
    5e88:	3c 81       	ldd	r19, Y+4	; 0x04
    5e8a:	fc 01       	movw	r30, r24
    5e8c:	36 83       	std	Z+6, r19	; 0x06
    5e8e:	25 83       	std	Z+5, r18	; 0x05
    5e90:	00 00       	nop
    5e92:	0f 90       	pop	r0
    5e94:	0f 90       	pop	r0
    5e96:	0f 90       	pop	r0
    5e98:	0f 90       	pop	r0
    5e9a:	df 91       	pop	r29
    5e9c:	cf 91       	pop	r28
    5e9e:	08 95       	ret

00005ea0 <disp_set_segment>:
    5ea0:	cf 93       	push	r28
    5ea2:	df 93       	push	r29
    5ea4:	00 d0       	rcall	.+0      	; 0x5ea6 <disp_set_segment+0x6>
    5ea6:	00 d0       	rcall	.+0      	; 0x5ea8 <disp_set_segment+0x8>
    5ea8:	cd b7       	in	r28, 0x3d	; 61
    5eaa:	de b7       	in	r29, 0x3e	; 62
    5eac:	89 83       	std	Y+1, r24	; 0x01
    5eae:	6a 83       	std	Y+2, r22	; 0x02
    5eb0:	4b 83       	std	Y+3, r20	; 0x03
    5eb2:	2c 83       	std	Y+4, r18	; 0x04
    5eb4:	89 81       	ldd	r24, Y+1	; 0x01
    5eb6:	88 30       	cpi	r24, 0x08	; 8
    5eb8:	08 f0       	brcs	.+2      	; 0x5ebc <disp_set_segment+0x1c>
    5eba:	82 c0       	rjmp	.+260    	; 0x5fc0 <disp_set_segment+0x120>
    5ebc:	8a 81       	ldd	r24, Y+2	; 0x02
    5ebe:	88 23       	and	r24, r24
    5ec0:	0c f4       	brge	.+2      	; 0x5ec4 <disp_set_segment+0x24>
    5ec2:	7e c0       	rjmp	.+252    	; 0x5fc0 <disp_set_segment+0x120>
    5ec4:	8c 81       	ldd	r24, Y+4	; 0x04
    5ec6:	88 2f       	mov	r24, r24
    5ec8:	90 e0       	ldi	r25, 0x00	; 0
    5eca:	81 30       	cpi	r24, 0x01	; 1
    5ecc:	91 05       	cpc	r25, r1
    5ece:	19 f0       	breq	.+6      	; 0x5ed6 <disp_set_segment+0x36>
    5ed0:	02 97       	sbiw	r24, 0x02	; 2
    5ed2:	41 f1       	breq	.+80     	; 0x5f24 <disp_set_segment+0x84>
    5ed4:	4e c0       	rjmp	.+156    	; 0x5f72 <disp_set_segment+0xd2>
    5ed6:	89 81       	ldd	r24, Y+1	; 0x01
    5ed8:	88 2f       	mov	r24, r24
    5eda:	90 e0       	ldi	r25, 0x00	; 0
    5edc:	9c 01       	movw	r18, r24
    5ede:	36 95       	lsr	r19
    5ee0:	32 2f       	mov	r19, r18
    5ee2:	22 27       	eor	r18, r18
    5ee4:	37 95       	ror	r19
    5ee6:	27 95       	ror	r18
    5ee8:	8a 81       	ldd	r24, Y+2	; 0x02
    5eea:	88 2f       	mov	r24, r24
    5eec:	90 e0       	ldi	r25, 0x00	; 0
    5eee:	82 0f       	add	r24, r18
    5ef0:	93 1f       	adc	r25, r19
    5ef2:	29 81       	ldd	r18, Y+1	; 0x01
    5ef4:	22 2f       	mov	r18, r18
    5ef6:	30 e0       	ldi	r19, 0x00	; 0
    5ef8:	a9 01       	movw	r20, r18
    5efa:	56 95       	lsr	r21
    5efc:	54 2f       	mov	r21, r20
    5efe:	44 27       	eor	r20, r20
    5f00:	57 95       	ror	r21
    5f02:	47 95       	ror	r20
    5f04:	2a 81       	ldd	r18, Y+2	; 0x02
    5f06:	22 2f       	mov	r18, r18
    5f08:	30 e0       	ldi	r19, 0x00	; 0
    5f0a:	24 0f       	add	r18, r20
    5f0c:	35 1f       	adc	r19, r21
    5f0e:	29 59       	subi	r18, 0x99	; 153
    5f10:	3e 4f       	sbci	r19, 0xFE	; 254
    5f12:	f9 01       	movw	r30, r18
    5f14:	30 81       	ld	r19, Z
    5f16:	2b 81       	ldd	r18, Y+3	; 0x03
    5f18:	23 23       	and	r18, r19
    5f1a:	89 59       	subi	r24, 0x99	; 153
    5f1c:	9e 4f       	sbci	r25, 0xFE	; 254
    5f1e:	fc 01       	movw	r30, r24
    5f20:	20 83       	st	Z, r18
    5f22:	4e c0       	rjmp	.+156    	; 0x5fc0 <disp_set_segment+0x120>
    5f24:	89 81       	ldd	r24, Y+1	; 0x01
    5f26:	88 2f       	mov	r24, r24
    5f28:	90 e0       	ldi	r25, 0x00	; 0
    5f2a:	9c 01       	movw	r18, r24
    5f2c:	36 95       	lsr	r19
    5f2e:	32 2f       	mov	r19, r18
    5f30:	22 27       	eor	r18, r18
    5f32:	37 95       	ror	r19
    5f34:	27 95       	ror	r18
    5f36:	8a 81       	ldd	r24, Y+2	; 0x02
    5f38:	88 2f       	mov	r24, r24
    5f3a:	90 e0       	ldi	r25, 0x00	; 0
    5f3c:	82 0f       	add	r24, r18
    5f3e:	93 1f       	adc	r25, r19
    5f40:	29 81       	ldd	r18, Y+1	; 0x01
    5f42:	22 2f       	mov	r18, r18
    5f44:	30 e0       	ldi	r19, 0x00	; 0
    5f46:	a9 01       	movw	r20, r18
    5f48:	56 95       	lsr	r21
    5f4a:	54 2f       	mov	r21, r20
    5f4c:	44 27       	eor	r20, r20
    5f4e:	57 95       	ror	r21
    5f50:	47 95       	ror	r20
    5f52:	2a 81       	ldd	r18, Y+2	; 0x02
    5f54:	22 2f       	mov	r18, r18
    5f56:	30 e0       	ldi	r19, 0x00	; 0
    5f58:	24 0f       	add	r18, r20
    5f5a:	35 1f       	adc	r19, r21
    5f5c:	29 59       	subi	r18, 0x99	; 153
    5f5e:	3e 4f       	sbci	r19, 0xFE	; 254
    5f60:	f9 01       	movw	r30, r18
    5f62:	30 81       	ld	r19, Z
    5f64:	2b 81       	ldd	r18, Y+3	; 0x03
    5f66:	23 27       	eor	r18, r19
    5f68:	89 59       	subi	r24, 0x99	; 153
    5f6a:	9e 4f       	sbci	r25, 0xFE	; 254
    5f6c:	fc 01       	movw	r30, r24
    5f6e:	20 83       	st	Z, r18
    5f70:	27 c0       	rjmp	.+78     	; 0x5fc0 <disp_set_segment+0x120>
    5f72:	89 81       	ldd	r24, Y+1	; 0x01
    5f74:	88 2f       	mov	r24, r24
    5f76:	90 e0       	ldi	r25, 0x00	; 0
    5f78:	9c 01       	movw	r18, r24
    5f7a:	36 95       	lsr	r19
    5f7c:	32 2f       	mov	r19, r18
    5f7e:	22 27       	eor	r18, r18
    5f80:	37 95       	ror	r19
    5f82:	27 95       	ror	r18
    5f84:	8a 81       	ldd	r24, Y+2	; 0x02
    5f86:	88 2f       	mov	r24, r24
    5f88:	90 e0       	ldi	r25, 0x00	; 0
    5f8a:	82 0f       	add	r24, r18
    5f8c:	93 1f       	adc	r25, r19
    5f8e:	29 81       	ldd	r18, Y+1	; 0x01
    5f90:	22 2f       	mov	r18, r18
    5f92:	30 e0       	ldi	r19, 0x00	; 0
    5f94:	a9 01       	movw	r20, r18
    5f96:	56 95       	lsr	r21
    5f98:	54 2f       	mov	r21, r20
    5f9a:	44 27       	eor	r20, r20
    5f9c:	57 95       	ror	r21
    5f9e:	47 95       	ror	r20
    5fa0:	2a 81       	ldd	r18, Y+2	; 0x02
    5fa2:	22 2f       	mov	r18, r18
    5fa4:	30 e0       	ldi	r19, 0x00	; 0
    5fa6:	24 0f       	add	r18, r20
    5fa8:	35 1f       	adc	r19, r21
    5faa:	29 59       	subi	r18, 0x99	; 153
    5fac:	3e 4f       	sbci	r19, 0xFE	; 254
    5fae:	f9 01       	movw	r30, r18
    5fb0:	30 81       	ld	r19, Z
    5fb2:	2b 81       	ldd	r18, Y+3	; 0x03
    5fb4:	23 2b       	or	r18, r19
    5fb6:	89 59       	subi	r24, 0x99	; 153
    5fb8:	9e 4f       	sbci	r25, 0xFE	; 254
    5fba:	fc 01       	movw	r30, r24
    5fbc:	20 83       	st	Z, r18
    5fbe:	00 00       	nop
    5fc0:	00 00       	nop
    5fc2:	0f 90       	pop	r0
    5fc4:	0f 90       	pop	r0
    5fc6:	0f 90       	pop	r0
    5fc8:	0f 90       	pop	r0
    5fca:	df 91       	pop	r29
    5fcc:	cf 91       	pop	r28
    5fce:	08 95       	ret

00005fd0 <disp_draw_glyph>:
    5fd0:	ef 92       	push	r14
    5fd2:	0f 93       	push	r16
    5fd4:	1f 93       	push	r17
    5fd6:	cf 93       	push	r28
    5fd8:	df 93       	push	r29
    5fda:	cd b7       	in	r28, 0x3d	; 61
    5fdc:	de b7       	in	r29, 0x3e	; 62
    5fde:	66 97       	sbiw	r28, 0x16	; 22
    5fe0:	0f b6       	in	r0, 0x3f	; 63
    5fe2:	f8 94       	cli
    5fe4:	de bf       	out	0x3e, r29	; 62
    5fe6:	0f be       	out	0x3f, r0	; 63
    5fe8:	cd bf       	out	0x3d, r28	; 61
    5fea:	9e 87       	std	Y+14, r25	; 0x0e
    5fec:	8d 87       	std	Y+13, r24	; 0x0d
    5fee:	78 8b       	std	Y+16, r23	; 0x10
    5ff0:	6f 87       	std	Y+15, r22	; 0x0f
    5ff2:	49 8b       	std	Y+17, r20	; 0x11
    5ff4:	0a 8b       	std	Y+18, r16	; 0x12
    5ff6:	1b 8b       	std	Y+19, r17	; 0x13
    5ff8:	2c 8b       	std	Y+20, r18	; 0x14
    5ffa:	3d 8b       	std	Y+21, r19	; 0x15
    5ffc:	ee 8a       	std	Y+22, r14	; 0x16
    5ffe:	8b 89       	ldd	r24, Y+19	; 0x13
    6000:	87 70       	andi	r24, 0x07	; 7
    6002:	8c 83       	std	Y+4, r24	; 0x04
    6004:	8e 89       	ldd	r24, Y+22	; 0x16
    6006:	88 2f       	mov	r24, r24
    6008:	90 e0       	ldi	r25, 0x00	; 0
    600a:	84 70       	andi	r24, 0x04	; 4
    600c:	99 27       	eor	r25, r25
    600e:	89 2b       	or	r24, r25
    6010:	11 f0       	breq	.+4      	; 0x6016 <disp_draw_glyph+0x46>
    6012:	82 e0       	ldi	r24, 0x02	; 2
    6014:	01 c0       	rjmp	.+2      	; 0x6018 <disp_draw_glyph+0x48>
    6016:	80 e0       	ldi	r24, 0x00	; 0
    6018:	8d 83       	std	Y+5, r24	; 0x05
    601a:	8b 89       	ldd	r24, Y+19	; 0x13
    601c:	86 95       	lsr	r24
    601e:	86 95       	lsr	r24
    6020:	86 95       	lsr	r24
    6022:	89 83       	std	Y+1, r24	; 0x01
    6024:	1e 82       	std	Y+6, r1	; 0x06
    6026:	1b 82       	std	Y+3, r1	; 0x03
    6028:	1a 82       	std	Y+2, r1	; 0x02
    602a:	66 c0       	rjmp	.+204    	; 0x60f8 <disp_draw_glyph+0x128>
    602c:	8c 89       	ldd	r24, Y+20	; 0x14
    602e:	28 2f       	mov	r18, r24
    6030:	30 e0       	ldi	r19, 0x00	; 0
    6032:	8a 81       	ldd	r24, Y+2	; 0x02
    6034:	9b 81       	ldd	r25, Y+3	; 0x03
    6036:	b9 01       	movw	r22, r18
    6038:	0e 94 72 35 	call	0x6ae4	; 0x6ae4 <__udivmodhi4>
    603c:	8e 83       	std	Y+6, r24	; 0x06
    603e:	8e 81       	ldd	r24, Y+6	; 0x06
    6040:	88 23       	and	r24, r24
    6042:	39 f4       	brne	.+14     	; 0x6052 <disp_draw_glyph+0x82>
    6044:	8a 81       	ldd	r24, Y+2	; 0x02
    6046:	9b 81       	ldd	r25, Y+3	; 0x03
    6048:	89 2b       	or	r24, r25
    604a:	19 f0       	breq	.+6      	; 0x6052 <disp_draw_glyph+0x82>
    604c:	89 81       	ldd	r24, Y+1	; 0x01
    604e:	8f 5f       	subi	r24, 0xFF	; 255
    6050:	89 83       	std	Y+1, r24	; 0x01
    6052:	2f 85       	ldd	r18, Y+15	; 0x0f
    6054:	38 89       	ldd	r19, Y+16	; 0x10
    6056:	8a 81       	ldd	r24, Y+2	; 0x02
    6058:	9b 81       	ldd	r25, Y+3	; 0x03
    605a:	82 0f       	add	r24, r18
    605c:	93 1f       	adc	r25, r19
    605e:	98 87       	std	Y+8, r25	; 0x08
    6060:	8f 83       	std	Y+7, r24	; 0x07
    6062:	8f 81       	ldd	r24, Y+7	; 0x07
    6064:	98 85       	ldd	r25, Y+8	; 0x08
    6066:	fc 01       	movw	r30, r24
    6068:	84 91       	lpm	r24, Z
    606a:	89 87       	std	Y+9, r24	; 0x09
    606c:	89 85       	ldd	r24, Y+9	; 0x09
    606e:	88 2f       	mov	r24, r24
    6070:	90 e0       	ldi	r25, 0x00	; 0
    6072:	2c 81       	ldd	r18, Y+4	; 0x04
    6074:	22 2f       	mov	r18, r18
    6076:	30 e0       	ldi	r19, 0x00	; 0
    6078:	02 c0       	rjmp	.+4      	; 0x607e <disp_draw_glyph+0xae>
    607a:	88 0f       	add	r24, r24
    607c:	99 1f       	adc	r25, r25
    607e:	2a 95       	dec	r18
    6080:	e2 f7       	brpl	.-8      	; 0x607a <disp_draw_glyph+0xaa>
    6082:	38 2f       	mov	r19, r24
    6084:	9a 89       	ldd	r25, Y+18	; 0x12
    6086:	8e 81       	ldd	r24, Y+6	; 0x06
    6088:	89 0f       	add	r24, r25
    608a:	2d 81       	ldd	r18, Y+5	; 0x05
    608c:	43 2f       	mov	r20, r19
    608e:	68 2f       	mov	r22, r24
    6090:	89 81       	ldd	r24, Y+1	; 0x01
    6092:	0e 94 50 2f 	call	0x5ea0	; 0x5ea0 <disp_set_segment>
    6096:	8c 81       	ldd	r24, Y+4	; 0x04
    6098:	88 23       	and	r24, r24
    609a:	49 f1       	breq	.+82     	; 0x60ee <disp_draw_glyph+0x11e>
    609c:	2f 85       	ldd	r18, Y+15	; 0x0f
    609e:	38 89       	ldd	r19, Y+16	; 0x10
    60a0:	8a 81       	ldd	r24, Y+2	; 0x02
    60a2:	9b 81       	ldd	r25, Y+3	; 0x03
    60a4:	82 0f       	add	r24, r18
    60a6:	93 1f       	adc	r25, r19
    60a8:	9b 87       	std	Y+11, r25	; 0x0b
    60aa:	8a 87       	std	Y+10, r24	; 0x0a
    60ac:	8a 85       	ldd	r24, Y+10	; 0x0a
    60ae:	9b 85       	ldd	r25, Y+11	; 0x0b
    60b0:	fc 01       	movw	r30, r24
    60b2:	84 91       	lpm	r24, Z
    60b4:	8c 87       	std	Y+12, r24	; 0x0c
    60b6:	8c 85       	ldd	r24, Y+12	; 0x0c
    60b8:	88 2f       	mov	r24, r24
    60ba:	90 e0       	ldi	r25, 0x00	; 0
    60bc:	2c 81       	ldd	r18, Y+4	; 0x04
    60be:	22 2f       	mov	r18, r18
    60c0:	30 e0       	ldi	r19, 0x00	; 0
    60c2:	48 e0       	ldi	r20, 0x08	; 8
    60c4:	50 e0       	ldi	r21, 0x00	; 0
    60c6:	ba 01       	movw	r22, r20
    60c8:	62 1b       	sub	r22, r18
    60ca:	73 0b       	sbc	r23, r19
    60cc:	9b 01       	movw	r18, r22
    60ce:	02 c0       	rjmp	.+4      	; 0x60d4 <disp_draw_glyph+0x104>
    60d0:	95 95       	asr	r25
    60d2:	87 95       	ror	r24
    60d4:	2a 95       	dec	r18
    60d6:	e2 f7       	brpl	.-8      	; 0x60d0 <disp_draw_glyph+0x100>
    60d8:	38 2f       	mov	r19, r24
    60da:	9a 89       	ldd	r25, Y+18	; 0x12
    60dc:	8e 81       	ldd	r24, Y+6	; 0x06
    60de:	98 0f       	add	r25, r24
    60e0:	89 81       	ldd	r24, Y+1	; 0x01
    60e2:	8f 5f       	subi	r24, 0xFF	; 255
    60e4:	2d 81       	ldd	r18, Y+5	; 0x05
    60e6:	43 2f       	mov	r20, r19
    60e8:	69 2f       	mov	r22, r25
    60ea:	0e 94 50 2f 	call	0x5ea0	; 0x5ea0 <disp_set_segment>
    60ee:	8a 81       	ldd	r24, Y+2	; 0x02
    60f0:	9b 81       	ldd	r25, Y+3	; 0x03
    60f2:	01 96       	adiw	r24, 0x01	; 1
    60f4:	9b 83       	std	Y+3, r25	; 0x03
    60f6:	8a 83       	std	Y+2, r24	; 0x02
    60f8:	89 89       	ldd	r24, Y+17	; 0x11
    60fa:	28 2f       	mov	r18, r24
    60fc:	30 e0       	ldi	r19, 0x00	; 0
    60fe:	8a 81       	ldd	r24, Y+2	; 0x02
    6100:	9b 81       	ldd	r25, Y+3	; 0x03
    6102:	82 17       	cp	r24, r18
    6104:	93 07       	cpc	r25, r19
    6106:	08 f4       	brcc	.+2      	; 0x610a <disp_draw_glyph+0x13a>
    6108:	91 cf       	rjmp	.-222    	; 0x602c <disp_draw_glyph+0x5c>
    610a:	00 00       	nop
    610c:	66 96       	adiw	r28, 0x16	; 22
    610e:	0f b6       	in	r0, 0x3f	; 63
    6110:	f8 94       	cli
    6112:	de bf       	out	0x3e, r29	; 62
    6114:	0f be       	out	0x3f, r0	; 63
    6116:	cd bf       	out	0x3d, r28	; 61
    6118:	df 91       	pop	r29
    611a:	cf 91       	pop	r28
    611c:	1f 91       	pop	r17
    611e:	0f 91       	pop	r16
    6120:	ef 90       	pop	r14
    6122:	08 95       	ret

00006124 <disp_draw_bitmap>:
    6124:	ef 92       	push	r14
    6126:	0f 93       	push	r16
    6128:	1f 93       	push	r17
    612a:	cf 93       	push	r28
    612c:	df 93       	push	r29
    612e:	cd b7       	in	r28, 0x3d	; 61
    6130:	de b7       	in	r29, 0x3e	; 62
    6132:	65 97       	sbiw	r28, 0x15	; 21
    6134:	0f b6       	in	r0, 0x3f	; 63
    6136:	f8 94       	cli
    6138:	de bf       	out	0x3e, r29	; 62
    613a:	0f be       	out	0x3f, r0	; 63
    613c:	cd bf       	out	0x3d, r28	; 61
    613e:	98 8b       	std	Y+16, r25	; 0x10
    6140:	8f 87       	std	Y+15, r24	; 0x0f
    6142:	7a 8b       	std	Y+18, r23	; 0x12
    6144:	69 8b       	std	Y+17, r22	; 0x11
    6146:	4b 8b       	std	Y+19, r20	; 0x13
    6148:	2c 8b       	std	Y+20, r18	; 0x14
    614a:	0d 8b       	std	Y+21, r16	; 0x15
    614c:	8b 89       	ldd	r24, Y+19	; 0x13
    614e:	8b 87       	std	Y+11, r24	; 0x0b
    6150:	8c 89       	ldd	r24, Y+20	; 0x14
    6152:	8c 87       	std	Y+12, r24	; 0x0c
    6154:	89 89       	ldd	r24, Y+17	; 0x11
    6156:	9a 89       	ldd	r25, Y+18	; 0x12
    6158:	9a 83       	std	Y+2, r25	; 0x02
    615a:	89 83       	std	Y+1, r24	; 0x01
    615c:	89 81       	ldd	r24, Y+1	; 0x01
    615e:	9a 81       	ldd	r25, Y+2	; 0x02
    6160:	fc 01       	movw	r30, r24
    6162:	84 91       	lpm	r24, Z
    6164:	8b 83       	std	Y+3, r24	; 0x03
    6166:	8b 81       	ldd	r24, Y+3	; 0x03
    6168:	8d 87       	std	Y+13, r24	; 0x0d
    616a:	89 89       	ldd	r24, Y+17	; 0x11
    616c:	9a 89       	ldd	r25, Y+18	; 0x12
    616e:	01 96       	adiw	r24, 0x01	; 1
    6170:	9d 83       	std	Y+5, r25	; 0x05
    6172:	8c 83       	std	Y+4, r24	; 0x04
    6174:	8c 81       	ldd	r24, Y+4	; 0x04
    6176:	9d 81       	ldd	r25, Y+5	; 0x05
    6178:	fc 01       	movw	r30, r24
    617a:	84 91       	lpm	r24, Z
    617c:	8e 83       	std	Y+6, r24	; 0x06
    617e:	8e 81       	ldd	r24, Y+6	; 0x06
    6180:	8e 87       	std	Y+14, r24	; 0x0e
    6182:	89 89       	ldd	r24, Y+17	; 0x11
    6184:	9a 89       	ldd	r25, Y+18	; 0x12
    6186:	02 96       	adiw	r24, 0x02	; 2
    6188:	98 87       	std	Y+8, r25	; 0x08
    618a:	8f 83       	std	Y+7, r24	; 0x07
    618c:	8f 81       	ldd	r24, Y+7	; 0x07
    618e:	98 85       	ldd	r25, Y+8	; 0x08
    6190:	fc 01       	movw	r30, r24
    6192:	25 91       	lpm	r18, Z+
    6194:	34 91       	lpm	r19, Z
    6196:	cf 01       	movw	r24, r30
    6198:	3a 87       	std	Y+10, r19	; 0x0a
    619a:	29 87       	std	Y+9, r18	; 0x09
    619c:	98 87       	std	Y+8, r25	; 0x08
    619e:	8f 83       	std	Y+7, r24	; 0x07
    61a0:	89 85       	ldd	r24, Y+9	; 0x09
    61a2:	9a 85       	ldd	r25, Y+10	; 0x0a
    61a4:	48 2f       	mov	r20, r24
    61a6:	89 89       	ldd	r24, Y+17	; 0x11
    61a8:	9a 89       	ldd	r25, Y+18	; 0x12
    61aa:	bc 01       	movw	r22, r24
    61ac:	6c 5f       	subi	r22, 0xFC	; 252
    61ae:	7f 4f       	sbci	r23, 0xFF	; 255
    61b0:	8b 85       	ldd	r24, Y+11	; 0x0b
    61b2:	9c 85       	ldd	r25, Y+12	; 0x0c
    61b4:	ad 85       	ldd	r26, Y+13	; 0x0d
    61b6:	be 85       	ldd	r27, Y+14	; 0x0e
    61b8:	ef 85       	ldd	r30, Y+15	; 0x0f
    61ba:	f8 89       	ldd	r31, Y+16	; 0x10
    61bc:	ed 88       	ldd	r14, Y+21	; 0x15
    61be:	8c 01       	movw	r16, r24
    61c0:	9d 01       	movw	r18, r26
    61c2:	cf 01       	movw	r24, r30
    61c4:	0e 94 e8 2f 	call	0x5fd0	; 0x5fd0 <disp_draw_glyph>
    61c8:	00 00       	nop
    61ca:	65 96       	adiw	r28, 0x15	; 21
    61cc:	0f b6       	in	r0, 0x3f	; 63
    61ce:	f8 94       	cli
    61d0:	de bf       	out	0x3e, r29	; 62
    61d2:	0f be       	out	0x3f, r0	; 63
    61d4:	cd bf       	out	0x3d, r28	; 61
    61d6:	df 91       	pop	r29
    61d8:	cf 91       	pop	r28
    61da:	1f 91       	pop	r17
    61dc:	0f 91       	pop	r16
    61de:	ef 90       	pop	r14
    61e0:	08 95       	ret

000061e2 <get_char_info>:
    61e2:	2f 92       	push	r2
    61e4:	3f 92       	push	r3
    61e6:	4f 92       	push	r4
    61e8:	5f 92       	push	r5
    61ea:	6f 92       	push	r6
    61ec:	7f 92       	push	r7
    61ee:	8f 92       	push	r8
    61f0:	9f 92       	push	r9
    61f2:	af 92       	push	r10
    61f4:	bf 92       	push	r11
    61f6:	cf 92       	push	r12
    61f8:	df 92       	push	r13
    61fa:	ef 92       	push	r14
    61fc:	ff 92       	push	r15
    61fe:	0f 93       	push	r16
    6200:	1f 93       	push	r17
    6202:	cf 93       	push	r28
    6204:	df 93       	push	r29
    6206:	cd b7       	in	r28, 0x3d	; 61
    6208:	de b7       	in	r29, 0x3e	; 62
    620a:	e2 97       	sbiw	r28, 0x32	; 50
    620c:	0f b6       	in	r0, 0x3f	; 63
    620e:	f8 94       	cli
    6210:	de bf       	out	0x3e, r29	; 62
    6212:	0f be       	out	0x3f, r0	; 63
    6214:	cd bf       	out	0x3d, r28	; 61
    6216:	98 ab       	std	Y+48, r25	; 0x30
    6218:	8f a7       	std	Y+47, r24	; 0x2f
    621a:	7a ab       	std	Y+50, r23	; 0x32
    621c:	69 ab       	std	Y+49, r22	; 0x31
    621e:	1a a6       	std	Y+42, r1	; 0x2a
    6220:	19 a6       	std	Y+41, r1	; 0x29
    6222:	1c a6       	std	Y+44, r1	; 0x2c
    6224:	1b a6       	std	Y+43, r1	; 0x2b
    6226:	1e a6       	std	Y+46, r1	; 0x2e
    6228:	1d a6       	std	Y+45, r1	; 0x2d
    622a:	8f a5       	ldd	r24, Y+47	; 0x2f
    622c:	98 a9       	ldd	r25, Y+48	; 0x30
    622e:	fc 01       	movw	r30, r24
    6230:	85 81       	ldd	r24, Z+5	; 0x05
    6232:	96 81       	ldd	r25, Z+6	; 0x06
    6234:	04 96       	adiw	r24, 0x04	; 4
    6236:	9e 83       	std	Y+6, r25	; 0x06
    6238:	8d 83       	std	Y+5, r24	; 0x05
    623a:	8d 81       	ldd	r24, Y+5	; 0x05
    623c:	9e 81       	ldd	r25, Y+6	; 0x06
    623e:	fc 01       	movw	r30, r24
    6240:	25 91       	lpm	r18, Z+
    6242:	34 91       	lpm	r19, Z
    6244:	cf 01       	movw	r24, r30
    6246:	38 87       	std	Y+8, r19	; 0x08
    6248:	2f 83       	std	Y+7, r18	; 0x07
    624a:	9e 83       	std	Y+6, r25	; 0x06
    624c:	8d 83       	std	Y+5, r24	; 0x05
    624e:	8f 81       	ldd	r24, Y+7	; 0x07
    6250:	98 85       	ldd	r25, Y+8	; 0x08
    6252:	9a 87       	std	Y+10, r25	; 0x0a
    6254:	89 87       	std	Y+9, r24	; 0x09
    6256:	89 85       	ldd	r24, Y+9	; 0x09
    6258:	9a 85       	ldd	r25, Y+10	; 0x0a
    625a:	88 0f       	add	r24, r24
    625c:	99 1f       	adc	r25, r25
    625e:	88 0f       	add	r24, r24
    6260:	99 1f       	adc	r25, r25
    6262:	06 96       	adiw	r24, 0x06	; 6
    6264:	9a 83       	std	Y+2, r25	; 0x02
    6266:	89 83       	std	Y+1, r24	; 0x01
    6268:	86 e0       	ldi	r24, 0x06	; 6
    626a:	90 e0       	ldi	r25, 0x00	; 0
    626c:	9c 83       	std	Y+4, r25	; 0x04
    626e:	8b 83       	std	Y+3, r24	; 0x03
    6270:	ca c0       	rjmp	.+404    	; 0x6406 <get_char_info+0x224>
    6272:	8f a5       	ldd	r24, Y+47	; 0x2f
    6274:	98 a9       	ldd	r25, Y+48	; 0x30
    6276:	fc 01       	movw	r30, r24
    6278:	25 81       	ldd	r18, Z+5	; 0x05
    627a:	36 81       	ldd	r19, Z+6	; 0x06
    627c:	8b 81       	ldd	r24, Y+3	; 0x03
    627e:	9c 81       	ldd	r25, Y+4	; 0x04
    6280:	82 0f       	add	r24, r18
    6282:	93 1f       	adc	r25, r19
    6284:	9c 87       	std	Y+12, r25	; 0x0c
    6286:	8b 87       	std	Y+11, r24	; 0x0b
    6288:	8b 85       	ldd	r24, Y+11	; 0x0b
    628a:	9c 85       	ldd	r25, Y+12	; 0x0c
    628c:	fc 01       	movw	r30, r24
    628e:	25 91       	lpm	r18, Z+
    6290:	34 91       	lpm	r19, Z
    6292:	cf 01       	movw	r24, r30
    6294:	3e 87       	std	Y+14, r19	; 0x0e
    6296:	2d 87       	std	Y+13, r18	; 0x0d
    6298:	9c 87       	std	Y+12, r25	; 0x0c
    629a:	8b 87       	std	Y+11, r24	; 0x0b
    629c:	8d 85       	ldd	r24, Y+13	; 0x0d
    629e:	9e 85       	ldd	r25, Y+14	; 0x0e
    62a0:	98 8b       	std	Y+16, r25	; 0x10
    62a2:	8f 87       	std	Y+15, r24	; 0x0f
    62a4:	8f a5       	ldd	r24, Y+47	; 0x2f
    62a6:	98 a9       	ldd	r25, Y+48	; 0x30
    62a8:	fc 01       	movw	r30, r24
    62aa:	25 81       	ldd	r18, Z+5	; 0x05
    62ac:	36 81       	ldd	r19, Z+6	; 0x06
    62ae:	8b 81       	ldd	r24, Y+3	; 0x03
    62b0:	9c 81       	ldd	r25, Y+4	; 0x04
    62b2:	02 96       	adiw	r24, 0x02	; 2
    62b4:	82 0f       	add	r24, r18
    62b6:	93 1f       	adc	r25, r19
    62b8:	9a 8b       	std	Y+18, r25	; 0x12
    62ba:	89 8b       	std	Y+17, r24	; 0x11
    62bc:	89 89       	ldd	r24, Y+17	; 0x11
    62be:	9a 89       	ldd	r25, Y+18	; 0x12
    62c0:	fc 01       	movw	r30, r24
    62c2:	25 91       	lpm	r18, Z+
    62c4:	34 91       	lpm	r19, Z
    62c6:	cf 01       	movw	r24, r30
    62c8:	3c 8b       	std	Y+20, r19	; 0x14
    62ca:	2b 8b       	std	Y+19, r18	; 0x13
    62cc:	9a 8b       	std	Y+18, r25	; 0x12
    62ce:	89 8b       	std	Y+17, r24	; 0x11
    62d0:	8b 89       	ldd	r24, Y+19	; 0x13
    62d2:	9c 89       	ldd	r25, Y+20	; 0x14
    62d4:	9e 8b       	std	Y+22, r25	; 0x16
    62d6:	8d 8b       	std	Y+21, r24	; 0x15
    62d8:	29 a9       	ldd	r18, Y+49	; 0x31
    62da:	3a a9       	ldd	r19, Y+50	; 0x32
    62dc:	8f 85       	ldd	r24, Y+15	; 0x0f
    62de:	98 89       	ldd	r25, Y+16	; 0x10
    62e0:	28 17       	cp	r18, r24
    62e2:	39 07       	cpc	r19, r25
    62e4:	0c f4       	brge	.+2      	; 0x62e8 <get_char_info+0x106>
    62e6:	71 c0       	rjmp	.+226    	; 0x63ca <get_char_info+0x1e8>
    62e8:	29 a9       	ldd	r18, Y+49	; 0x31
    62ea:	3a a9       	ldd	r19, Y+50	; 0x32
    62ec:	8d 89       	ldd	r24, Y+21	; 0x15
    62ee:	9e 89       	ldd	r25, Y+22	; 0x16
    62f0:	82 17       	cp	r24, r18
    62f2:	93 07       	cpc	r25, r19
    62f4:	0c f4       	brge	.+2      	; 0x62f8 <get_char_info+0x116>
    62f6:	69 c0       	rjmp	.+210    	; 0x63ca <get_char_info+0x1e8>
    62f8:	29 a9       	ldd	r18, Y+49	; 0x31
    62fa:	3a a9       	ldd	r19, Y+50	; 0x32
    62fc:	8f 85       	ldd	r24, Y+15	; 0x0f
    62fe:	98 89       	ldd	r25, Y+16	; 0x10
    6300:	28 1b       	sub	r18, r24
    6302:	39 0b       	sbc	r19, r25
    6304:	c9 01       	movw	r24, r18
    6306:	88 0f       	add	r24, r24
    6308:	99 1f       	adc	r25, r25
    630a:	82 0f       	add	r24, r18
    630c:	93 1f       	adc	r25, r19
    630e:	88 0f       	add	r24, r24
    6310:	99 1f       	adc	r25, r25
    6312:	9c 01       	movw	r18, r24
    6314:	89 81       	ldd	r24, Y+1	; 0x01
    6316:	9a 81       	ldd	r25, Y+2	; 0x02
    6318:	82 0f       	add	r24, r18
    631a:	93 1f       	adc	r25, r19
    631c:	9a 83       	std	Y+2, r25	; 0x02
    631e:	89 83       	std	Y+1, r24	; 0x01
    6320:	8f a5       	ldd	r24, Y+47	; 0x2f
    6322:	98 a9       	ldd	r25, Y+48	; 0x30
    6324:	fc 01       	movw	r30, r24
    6326:	25 81       	ldd	r18, Z+5	; 0x05
    6328:	36 81       	ldd	r19, Z+6	; 0x06
    632a:	89 81       	ldd	r24, Y+1	; 0x01
    632c:	9a 81       	ldd	r25, Y+2	; 0x02
    632e:	82 0f       	add	r24, r18
    6330:	93 1f       	adc	r25, r19
    6332:	98 8f       	std	Y+24, r25	; 0x18
    6334:	8f 8b       	std	Y+23, r24	; 0x17
    6336:	8f 89       	ldd	r24, Y+23	; 0x17
    6338:	98 8d       	ldd	r25, Y+24	; 0x18
    633a:	fc 01       	movw	r30, r24
    633c:	25 91       	lpm	r18, Z+
    633e:	34 91       	lpm	r19, Z
    6340:	cf 01       	movw	r24, r30
    6342:	3a 8f       	std	Y+26, r19	; 0x1a
    6344:	29 8f       	std	Y+25, r18	; 0x19
    6346:	98 8f       	std	Y+24, r25	; 0x18
    6348:	8f 8b       	std	Y+23, r24	; 0x17
    634a:	89 8d       	ldd	r24, Y+25	; 0x19
    634c:	9a 8d       	ldd	r25, Y+26	; 0x1a
    634e:	9a a7       	std	Y+42, r25	; 0x2a
    6350:	89 a7       	std	Y+41, r24	; 0x29
    6352:	8f a5       	ldd	r24, Y+47	; 0x2f
    6354:	98 a9       	ldd	r25, Y+48	; 0x30
    6356:	fc 01       	movw	r30, r24
    6358:	25 81       	ldd	r18, Z+5	; 0x05
    635a:	36 81       	ldd	r19, Z+6	; 0x06
    635c:	89 81       	ldd	r24, Y+1	; 0x01
    635e:	9a 81       	ldd	r25, Y+2	; 0x02
    6360:	02 96       	adiw	r24, 0x02	; 2
    6362:	82 0f       	add	r24, r18
    6364:	93 1f       	adc	r25, r19
    6366:	9c 8f       	std	Y+28, r25	; 0x1c
    6368:	8b 8f       	std	Y+27, r24	; 0x1b
    636a:	8b 8d       	ldd	r24, Y+27	; 0x1b
    636c:	9c 8d       	ldd	r25, Y+28	; 0x1c
    636e:	fc 01       	movw	r30, r24
    6370:	25 91       	lpm	r18, Z+
    6372:	34 91       	lpm	r19, Z
    6374:	cf 01       	movw	r24, r30
    6376:	3e 8f       	std	Y+30, r19	; 0x1e
    6378:	2d 8f       	std	Y+29, r18	; 0x1d
    637a:	9c 8f       	std	Y+28, r25	; 0x1c
    637c:	8b 8f       	std	Y+27, r24	; 0x1b
    637e:	8d 8d       	ldd	r24, Y+29	; 0x1d
    6380:	9e 8d       	ldd	r25, Y+30	; 0x1e
    6382:	9c a7       	std	Y+44, r25	; 0x2c
    6384:	8b a7       	std	Y+43, r24	; 0x2b
    6386:	8f a5       	ldd	r24, Y+47	; 0x2f
    6388:	98 a9       	ldd	r25, Y+48	; 0x30
    638a:	fc 01       	movw	r30, r24
    638c:	25 81       	ldd	r18, Z+5	; 0x05
    638e:	36 81       	ldd	r19, Z+6	; 0x06
    6390:	8f a5       	ldd	r24, Y+47	; 0x2f
    6392:	98 a9       	ldd	r25, Y+48	; 0x30
    6394:	fc 01       	movw	r30, r24
    6396:	45 81       	ldd	r20, Z+5	; 0x05
    6398:	56 81       	ldd	r21, Z+6	; 0x06
    639a:	89 81       	ldd	r24, Y+1	; 0x01
    639c:	9a 81       	ldd	r25, Y+2	; 0x02
    639e:	04 96       	adiw	r24, 0x04	; 4
    63a0:	84 0f       	add	r24, r20
    63a2:	95 1f       	adc	r25, r21
    63a4:	98 a3       	std	Y+32, r25	; 0x20
    63a6:	8f 8f       	std	Y+31, r24	; 0x1f
    63a8:	8f 8d       	ldd	r24, Y+31	; 0x1f
    63aa:	98 a1       	ldd	r25, Y+32	; 0x20
    63ac:	fc 01       	movw	r30, r24
    63ae:	45 91       	lpm	r20, Z+
    63b0:	54 91       	lpm	r21, Z
    63b2:	cf 01       	movw	r24, r30
    63b4:	5a a3       	std	Y+34, r21	; 0x22
    63b6:	49 a3       	std	Y+33, r20	; 0x21
    63b8:	98 a3       	std	Y+32, r25	; 0x20
    63ba:	8f 8f       	std	Y+31, r24	; 0x1f
    63bc:	89 a1       	ldd	r24, Y+33	; 0x21
    63be:	9a a1       	ldd	r25, Y+34	; 0x22
    63c0:	82 0f       	add	r24, r18
    63c2:	93 1f       	adc	r25, r19
    63c4:	9e a7       	std	Y+46, r25	; 0x2e
    63c6:	8d a7       	std	Y+45, r24	; 0x2d
    63c8:	2d c0       	rjmp	.+90     	; 0x6424 <get_char_info+0x242>
    63ca:	2d 89       	ldd	r18, Y+21	; 0x15
    63cc:	3e 89       	ldd	r19, Y+22	; 0x16
    63ce:	8f 85       	ldd	r24, Y+15	; 0x0f
    63d0:	98 89       	ldd	r25, Y+16	; 0x10
    63d2:	a9 01       	movw	r20, r18
    63d4:	48 1b       	sub	r20, r24
    63d6:	59 0b       	sbc	r21, r25
    63d8:	ca 01       	movw	r24, r20
    63da:	9c 01       	movw	r18, r24
    63dc:	2f 5f       	subi	r18, 0xFF	; 255
    63de:	3f 4f       	sbci	r19, 0xFF	; 255
    63e0:	c9 01       	movw	r24, r18
    63e2:	88 0f       	add	r24, r24
    63e4:	99 1f       	adc	r25, r25
    63e6:	82 0f       	add	r24, r18
    63e8:	93 1f       	adc	r25, r19
    63ea:	88 0f       	add	r24, r24
    63ec:	99 1f       	adc	r25, r25
    63ee:	9c 01       	movw	r18, r24
    63f0:	89 81       	ldd	r24, Y+1	; 0x01
    63f2:	9a 81       	ldd	r25, Y+2	; 0x02
    63f4:	82 0f       	add	r24, r18
    63f6:	93 1f       	adc	r25, r19
    63f8:	9a 83       	std	Y+2, r25	; 0x02
    63fa:	89 83       	std	Y+1, r24	; 0x01
    63fc:	8b 81       	ldd	r24, Y+3	; 0x03
    63fe:	9c 81       	ldd	r25, Y+4	; 0x04
    6400:	04 96       	adiw	r24, 0x04	; 4
    6402:	9c 83       	std	Y+4, r25	; 0x04
    6404:	8b 83       	std	Y+3, r24	; 0x03
    6406:	89 85       	ldd	r24, Y+9	; 0x09
    6408:	9a 85       	ldd	r25, Y+10	; 0x0a
    640a:	88 0f       	add	r24, r24
    640c:	99 1f       	adc	r25, r25
    640e:	88 0f       	add	r24, r24
    6410:	99 1f       	adc	r25, r25
    6412:	9c 01       	movw	r18, r24
    6414:	2a 5f       	subi	r18, 0xFA	; 250
    6416:	3f 4f       	sbci	r19, 0xFF	; 255
    6418:	8b 81       	ldd	r24, Y+3	; 0x03
    641a:	9c 81       	ldd	r25, Y+4	; 0x04
    641c:	82 17       	cp	r24, r18
    641e:	93 07       	cpc	r25, r19
    6420:	08 f4       	brcc	.+2      	; 0x6424 <get_char_info+0x242>
    6422:	27 cf       	rjmp	.-434    	; 0x6272 <get_char_info+0x90>
    6424:	86 e0       	ldi	r24, 0x06	; 6
    6426:	fe 01       	movw	r30, r28
    6428:	b9 96       	adiw	r30, 0x29	; 41
    642a:	de 01       	movw	r26, r28
    642c:	93 96       	adiw	r26, 0x23	; 35
    642e:	01 90       	ld	r0, Z+
    6430:	0d 92       	st	X+, r0
    6432:	8a 95       	dec	r24
    6434:	e1 f7       	brne	.-8      	; 0x642e <get_char_info+0x24c>
    6436:	50 e0       	ldi	r21, 0x00	; 0
    6438:	5b a1       	ldd	r21, Y+35	; 0x23
    643a:	40 e0       	ldi	r20, 0x00	; 0
    643c:	4c a1       	ldd	r20, Y+36	; 0x24
    643e:	30 e0       	ldi	r19, 0x00	; 0
    6440:	3d a1       	ldd	r19, Y+37	; 0x25
    6442:	20 e0       	ldi	r18, 0x00	; 0
    6444:	2e a1       	ldd	r18, Y+38	; 0x26
    6446:	90 e0       	ldi	r25, 0x00	; 0
    6448:	9f a1       	ldd	r25, Y+39	; 0x27
    644a:	80 e0       	ldi	r24, 0x00	; 0
    644c:	88 a5       	ldd	r24, Y+40	; 0x28
    644e:	25 2e       	mov	r2, r21
    6450:	34 2e       	mov	r3, r20
    6452:	43 2e       	mov	r4, r19
    6454:	52 2e       	mov	r5, r18
    6456:	69 2e       	mov	r6, r25
    6458:	78 2e       	mov	r7, r24
    645a:	a2 2c       	mov	r10, r2
    645c:	b3 2c       	mov	r11, r3
    645e:	c4 2c       	mov	r12, r4
    6460:	d5 2c       	mov	r13, r5
    6462:	e6 2c       	mov	r14, r6
    6464:	f7 2c       	mov	r15, r7
    6466:	08 2d       	mov	r16, r8
    6468:	19 2d       	mov	r17, r9
    646a:	2a 2d       	mov	r18, r10
    646c:	3b 2d       	mov	r19, r11
    646e:	4c 2d       	mov	r20, r12
    6470:	5d 2d       	mov	r21, r13
    6472:	6e 2d       	mov	r22, r14
    6474:	7f 2d       	mov	r23, r15
    6476:	80 2f       	mov	r24, r16
    6478:	91 2f       	mov	r25, r17
    647a:	e2 96       	adiw	r28, 0x32	; 50
    647c:	0f b6       	in	r0, 0x3f	; 63
    647e:	f8 94       	cli
    6480:	de bf       	out	0x3e, r29	; 62
    6482:	0f be       	out	0x3f, r0	; 63
    6484:	cd bf       	out	0x3d, r28	; 61
    6486:	df 91       	pop	r29
    6488:	cf 91       	pop	r28
    648a:	1f 91       	pop	r17
    648c:	0f 91       	pop	r16
    648e:	ff 90       	pop	r15
    6490:	ef 90       	pop	r14
    6492:	df 90       	pop	r13
    6494:	cf 90       	pop	r12
    6496:	bf 90       	pop	r11
    6498:	af 90       	pop	r10
    649a:	9f 90       	pop	r9
    649c:	8f 90       	pop	r8
    649e:	7f 90       	pop	r7
    64a0:	6f 90       	pop	r6
    64a2:	5f 90       	pop	r5
    64a4:	4f 90       	pop	r4
    64a6:	3f 90       	pop	r3
    64a8:	2f 90       	pop	r2
    64aa:	08 95       	ret

000064ac <disp_draw_text>:
    64ac:	af 92       	push	r10
    64ae:	bf 92       	push	r11
    64b0:	cf 92       	push	r12
    64b2:	df 92       	push	r13
    64b4:	ef 92       	push	r14
    64b6:	ff 92       	push	r15
    64b8:	0f 93       	push	r16
    64ba:	1f 93       	push	r17
    64bc:	cf 93       	push	r28
    64be:	df 93       	push	r29
    64c0:	cd b7       	in	r28, 0x3d	; 61
    64c2:	de b7       	in	r29, 0x3e	; 62
    64c4:	66 97       	sbiw	r28, 0x16	; 22
    64c6:	0f b6       	in	r0, 0x3f	; 63
    64c8:	f8 94       	cli
    64ca:	de bf       	out	0x3e, r29	; 62
    64cc:	0f be       	out	0x3f, r0	; 63
    64ce:	cd bf       	out	0x3d, r28	; 61
    64d0:	99 8b       	std	Y+17, r25	; 0x11
    64d2:	88 8b       	std	Y+16, r24	; 0x10
    64d4:	6a 8b       	std	Y+18, r22	; 0x12
    64d6:	4b 8b       	std	Y+19, r20	; 0x13
    64d8:	3d 8b       	std	Y+21, r19	; 0x15
    64da:	2c 8b       	std	Y+20, r18	; 0x14
    64dc:	0e 8b       	std	Y+22, r16	; 0x16
    64de:	88 89       	ldd	r24, Y+16	; 0x10
    64e0:	99 89       	ldd	r25, Y+17	; 0x11
    64e2:	fc 01       	movw	r30, r24
    64e4:	85 81       	ldd	r24, Z+5	; 0x05
    64e6:	96 81       	ldd	r25, Z+6	; 0x06
    64e8:	89 2b       	or	r24, r25
    64ea:	09 f4       	brne	.+2      	; 0x64ee <disp_draw_text+0x42>
    64ec:	71 c0       	rjmp	.+226    	; 0x65d0 <disp_draw_text+0x124>
    64ee:	8a 89       	ldd	r24, Y+18	; 0x12
    64f0:	8e 83       	std	Y+6, r24	; 0x06
    64f2:	8b 89       	ldd	r24, Y+19	; 0x13
    64f4:	8f 83       	std	Y+7, r24	; 0x07
    64f6:	18 86       	std	Y+8, r1	; 0x08
    64f8:	88 89       	ldd	r24, Y+16	; 0x10
    64fa:	99 89       	ldd	r25, Y+17	; 0x11
    64fc:	fc 01       	movw	r30, r24
    64fe:	85 81       	ldd	r24, Z+5	; 0x05
    6500:	96 81       	ldd	r25, Z+6	; 0x06
    6502:	9b 83       	std	Y+3, r25	; 0x03
    6504:	8a 83       	std	Y+2, r24	; 0x02
    6506:	8a 81       	ldd	r24, Y+2	; 0x02
    6508:	9b 81       	ldd	r25, Y+3	; 0x03
    650a:	fc 01       	movw	r30, r24
    650c:	25 91       	lpm	r18, Z+
    650e:	34 91       	lpm	r19, Z
    6510:	cf 01       	movw	r24, r30
    6512:	3d 83       	std	Y+5, r19	; 0x05
    6514:	2c 83       	std	Y+4, r18	; 0x04
    6516:	9b 83       	std	Y+3, r25	; 0x03
    6518:	8a 83       	std	Y+2, r24	; 0x02
    651a:	8c 81       	ldd	r24, Y+4	; 0x04
    651c:	9d 81       	ldd	r25, Y+5	; 0x05
    651e:	89 87       	std	Y+9, r24	; 0x09
    6520:	19 82       	std	Y+1, r1	; 0x01
    6522:	51 c0       	rjmp	.+162    	; 0x65c6 <disp_draw_text+0x11a>
    6524:	89 81       	ldd	r24, Y+1	; 0x01
    6526:	88 2f       	mov	r24, r24
    6528:	90 e0       	ldi	r25, 0x00	; 0
    652a:	88 0f       	add	r24, r24
    652c:	99 1f       	adc	r25, r25
    652e:	2c 89       	ldd	r18, Y+20	; 0x14
    6530:	3d 89       	ldd	r19, Y+21	; 0x15
    6532:	82 0f       	add	r24, r18
    6534:	93 1f       	adc	r25, r19
    6536:	fc 01       	movw	r30, r24
    6538:	80 81       	ld	r24, Z
    653a:	91 81       	ldd	r25, Z+1	; 0x01
    653c:	89 2b       	or	r24, r25
    653e:	09 f4       	brne	.+2      	; 0x6542 <disp_draw_text+0x96>
    6540:	49 c0       	rjmp	.+146    	; 0x65d4 <disp_draw_text+0x128>
    6542:	89 81       	ldd	r24, Y+1	; 0x01
    6544:	88 2f       	mov	r24, r24
    6546:	90 e0       	ldi	r25, 0x00	; 0
    6548:	88 0f       	add	r24, r24
    654a:	99 1f       	adc	r25, r25
    654c:	2c 89       	ldd	r18, Y+20	; 0x14
    654e:	3d 89       	ldd	r19, Y+21	; 0x15
    6550:	82 0f       	add	r24, r18
    6552:	93 1f       	adc	r25, r19
    6554:	fc 01       	movw	r30, r24
    6556:	20 81       	ld	r18, Z
    6558:	31 81       	ldd	r19, Z+1	; 0x01
    655a:	88 89       	ldd	r24, Y+16	; 0x10
    655c:	99 89       	ldd	r25, Y+17	; 0x11
    655e:	b9 01       	movw	r22, r18
    6560:	0e 94 f1 30 	call	0x61e2	; 0x61e2 <get_char_info>
    6564:	a2 2e       	mov	r10, r18
    6566:	b3 2e       	mov	r11, r19
    6568:	c4 2e       	mov	r12, r20
    656a:	d5 2e       	mov	r13, r21
    656c:	e6 2e       	mov	r14, r22
    656e:	f7 2e       	mov	r15, r23
    6570:	08 2f       	mov	r16, r24
    6572:	19 2f       	mov	r17, r25
    6574:	2a 2d       	mov	r18, r10
    6576:	3b 2d       	mov	r19, r11
    6578:	4c 2d       	mov	r20, r12
    657a:	5d 2d       	mov	r21, r13
    657c:	6e 2d       	mov	r22, r14
    657e:	7f 2d       	mov	r23, r15
    6580:	80 2f       	mov	r24, r16
    6582:	91 2f       	mov	r25, r17
    6584:	2a 87       	std	Y+10, r18	; 0x0a
    6586:	3b 87       	std	Y+11, r19	; 0x0b
    6588:	4c 87       	std	Y+12, r20	; 0x0c
    658a:	5d 87       	std	Y+13, r21	; 0x0d
    658c:	6e 87       	std	Y+14, r22	; 0x0e
    658e:	7f 87       	std	Y+15, r23	; 0x0f
    6590:	8a 85       	ldd	r24, Y+10	; 0x0a
    6592:	9b 85       	ldd	r25, Y+11	; 0x0b
    6594:	88 87       	std	Y+8, r24	; 0x08
    6596:	8c 85       	ldd	r24, Y+12	; 0x0c
    6598:	9d 85       	ldd	r25, Y+13	; 0x0d
    659a:	48 2f       	mov	r20, r24
    659c:	6e 85       	ldd	r22, Y+14	; 0x0e
    659e:	7f 85       	ldd	r23, Y+15	; 0x0f
    65a0:	8e 81       	ldd	r24, Y+6	; 0x06
    65a2:	9f 81       	ldd	r25, Y+7	; 0x07
    65a4:	a8 85       	ldd	r26, Y+8	; 0x08
    65a6:	b9 85       	ldd	r27, Y+9	; 0x09
    65a8:	e8 89       	ldd	r30, Y+16	; 0x10
    65aa:	f9 89       	ldd	r31, Y+17	; 0x11
    65ac:	ee 88       	ldd	r14, Y+22	; 0x16
    65ae:	8c 01       	movw	r16, r24
    65b0:	9d 01       	movw	r18, r26
    65b2:	cf 01       	movw	r24, r30
    65b4:	0e 94 e8 2f 	call	0x5fd0	; 0x5fd0 <disp_draw_glyph>
    65b8:	9e 81       	ldd	r25, Y+6	; 0x06
    65ba:	88 85       	ldd	r24, Y+8	; 0x08
    65bc:	89 0f       	add	r24, r25
    65be:	8e 83       	std	Y+6, r24	; 0x06
    65c0:	89 81       	ldd	r24, Y+1	; 0x01
    65c2:	8f 5f       	subi	r24, 0xFF	; 255
    65c4:	89 83       	std	Y+1, r24	; 0x01
    65c6:	89 81       	ldd	r24, Y+1	; 0x01
    65c8:	8f 3f       	cpi	r24, 0xFF	; 255
    65ca:	09 f0       	breq	.+2      	; 0x65ce <disp_draw_text+0x122>
    65cc:	ab cf       	rjmp	.-170    	; 0x6524 <disp_draw_text+0x78>
    65ce:	03 c0       	rjmp	.+6      	; 0x65d6 <disp_draw_text+0x12a>
    65d0:	00 00       	nop
    65d2:	01 c0       	rjmp	.+2      	; 0x65d6 <disp_draw_text+0x12a>
    65d4:	00 00       	nop
    65d6:	66 96       	adiw	r28, 0x16	; 22
    65d8:	0f b6       	in	r0, 0x3f	; 63
    65da:	f8 94       	cli
    65dc:	de bf       	out	0x3e, r29	; 62
    65de:	0f be       	out	0x3f, r0	; 63
    65e0:	cd bf       	out	0x3d, r28	; 61
    65e2:	df 91       	pop	r29
    65e4:	cf 91       	pop	r28
    65e6:	1f 91       	pop	r17
    65e8:	0f 91       	pop	r16
    65ea:	ff 90       	pop	r15
    65ec:	ef 90       	pop	r14
    65ee:	df 90       	pop	r13
    65f0:	cf 90       	pop	r12
    65f2:	bf 90       	pop	r11
    65f4:	af 90       	pop	r10
    65f6:	08 95       	ret

000065f8 <disp_get_text_metrics>:
    65f8:	af 92       	push	r10
    65fa:	bf 92       	push	r11
    65fc:	cf 92       	push	r12
    65fe:	df 92       	push	r13
    6600:	ef 92       	push	r14
    6602:	ff 92       	push	r15
    6604:	0f 93       	push	r16
    6606:	1f 93       	push	r17
    6608:	cf 93       	push	r28
    660a:	df 93       	push	r29
    660c:	cd b7       	in	r28, 0x3d	; 61
    660e:	de b7       	in	r29, 0x3e	; 62
    6610:	63 97       	sbiw	r28, 0x13	; 19
    6612:	0f b6       	in	r0, 0x3f	; 63
    6614:	f8 94       	cli
    6616:	de bf       	out	0x3e, r29	; 62
    6618:	0f be       	out	0x3f, r0	; 63
    661a:	cd bf       	out	0x3d, r28	; 61
    661c:	9d 87       	std	Y+13, r25	; 0x0d
    661e:	8c 87       	std	Y+12, r24	; 0x0c
    6620:	7f 87       	std	Y+15, r23	; 0x0f
    6622:	6e 87       	std	Y+14, r22	; 0x0e
    6624:	59 8b       	std	Y+17, r21	; 0x11
    6626:	48 8b       	std	Y+16, r20	; 0x10
    6628:	3b 8b       	std	Y+19, r19	; 0x13
    662a:	2a 8b       	std	Y+18, r18	; 0x12
    662c:	8c 85       	ldd	r24, Y+12	; 0x0c
    662e:	9d 85       	ldd	r25, Y+13	; 0x0d
    6630:	fc 01       	movw	r30, r24
    6632:	85 81       	ldd	r24, Z+5	; 0x05
    6634:	96 81       	ldd	r25, Z+6	; 0x06
    6636:	89 2b       	or	r24, r25
    6638:	09 f4       	brne	.+2      	; 0x663c <disp_get_text_metrics+0x44>
    663a:	74 c0       	rjmp	.+232    	; 0x6724 <disp_get_text_metrics+0x12c>
    663c:	8a 89       	ldd	r24, Y+18	; 0x12
    663e:	9b 89       	ldd	r25, Y+19	; 0x13
    6640:	89 2b       	or	r24, r25
    6642:	c1 f0       	breq	.+48     	; 0x6674 <disp_get_text_metrics+0x7c>
    6644:	8c 85       	ldd	r24, Y+12	; 0x0c
    6646:	9d 85       	ldd	r25, Y+13	; 0x0d
    6648:	fc 01       	movw	r30, r24
    664a:	85 81       	ldd	r24, Z+5	; 0x05
    664c:	96 81       	ldd	r25, Z+6	; 0x06
    664e:	9b 83       	std	Y+3, r25	; 0x03
    6650:	8a 83       	std	Y+2, r24	; 0x02
    6652:	8a 81       	ldd	r24, Y+2	; 0x02
    6654:	9b 81       	ldd	r25, Y+3	; 0x03
    6656:	fc 01       	movw	r30, r24
    6658:	25 91       	lpm	r18, Z+
    665a:	34 91       	lpm	r19, Z
    665c:	cf 01       	movw	r24, r30
    665e:	3d 83       	std	Y+5, r19	; 0x05
    6660:	2c 83       	std	Y+4, r18	; 0x04
    6662:	9b 83       	std	Y+3, r25	; 0x03
    6664:	8a 83       	std	Y+2, r24	; 0x02
    6666:	2c 81       	ldd	r18, Y+4	; 0x04
    6668:	3d 81       	ldd	r19, Y+5	; 0x05
    666a:	8a 89       	ldd	r24, Y+18	; 0x12
    666c:	9b 89       	ldd	r25, Y+19	; 0x13
    666e:	fc 01       	movw	r30, r24
    6670:	31 83       	std	Z+1, r19	; 0x01
    6672:	20 83       	st	Z, r18
    6674:	88 89       	ldd	r24, Y+16	; 0x10
    6676:	99 89       	ldd	r25, Y+17	; 0x11
    6678:	89 2b       	or	r24, r25
    667a:	09 f4       	brne	.+2      	; 0x667e <disp_get_text_metrics+0x86>
    667c:	56 c0       	rjmp	.+172    	; 0x672a <disp_get_text_metrics+0x132>
    667e:	88 89       	ldd	r24, Y+16	; 0x10
    6680:	99 89       	ldd	r25, Y+17	; 0x11
    6682:	fc 01       	movw	r30, r24
    6684:	11 82       	std	Z+1, r1	; 0x01
    6686:	10 82       	st	Z, r1
    6688:	19 82       	std	Y+1, r1	; 0x01
    668a:	47 c0       	rjmp	.+142    	; 0x671a <disp_get_text_metrics+0x122>
    668c:	89 81       	ldd	r24, Y+1	; 0x01
    668e:	88 2f       	mov	r24, r24
    6690:	90 e0       	ldi	r25, 0x00	; 0
    6692:	88 0f       	add	r24, r24
    6694:	99 1f       	adc	r25, r25
    6696:	2e 85       	ldd	r18, Y+14	; 0x0e
    6698:	3f 85       	ldd	r19, Y+15	; 0x0f
    669a:	82 0f       	add	r24, r18
    669c:	93 1f       	adc	r25, r19
    669e:	fc 01       	movw	r30, r24
    66a0:	80 81       	ld	r24, Z
    66a2:	91 81       	ldd	r25, Z+1	; 0x01
    66a4:	89 2b       	or	r24, r25
    66a6:	09 f4       	brne	.+2      	; 0x66aa <disp_get_text_metrics+0xb2>
    66a8:	3f c0       	rjmp	.+126    	; 0x6728 <disp_get_text_metrics+0x130>
    66aa:	89 81       	ldd	r24, Y+1	; 0x01
    66ac:	88 2f       	mov	r24, r24
    66ae:	90 e0       	ldi	r25, 0x00	; 0
    66b0:	88 0f       	add	r24, r24
    66b2:	99 1f       	adc	r25, r25
    66b4:	2e 85       	ldd	r18, Y+14	; 0x0e
    66b6:	3f 85       	ldd	r19, Y+15	; 0x0f
    66b8:	82 0f       	add	r24, r18
    66ba:	93 1f       	adc	r25, r19
    66bc:	fc 01       	movw	r30, r24
    66be:	20 81       	ld	r18, Z
    66c0:	31 81       	ldd	r19, Z+1	; 0x01
    66c2:	8c 85       	ldd	r24, Y+12	; 0x0c
    66c4:	9d 85       	ldd	r25, Y+13	; 0x0d
    66c6:	b9 01       	movw	r22, r18
    66c8:	0e 94 f1 30 	call	0x61e2	; 0x61e2 <get_char_info>
    66cc:	a2 2e       	mov	r10, r18
    66ce:	b3 2e       	mov	r11, r19
    66d0:	c4 2e       	mov	r12, r20
    66d2:	d5 2e       	mov	r13, r21
    66d4:	e6 2e       	mov	r14, r22
    66d6:	f7 2e       	mov	r15, r23
    66d8:	08 2f       	mov	r16, r24
    66da:	19 2f       	mov	r17, r25
    66dc:	2a 2d       	mov	r18, r10
    66de:	3b 2d       	mov	r19, r11
    66e0:	4c 2d       	mov	r20, r12
    66e2:	5d 2d       	mov	r21, r13
    66e4:	6e 2d       	mov	r22, r14
    66e6:	7f 2d       	mov	r23, r15
    66e8:	80 2f       	mov	r24, r16
    66ea:	91 2f       	mov	r25, r17
    66ec:	2e 83       	std	Y+6, r18	; 0x06
    66ee:	3f 83       	std	Y+7, r19	; 0x07
    66f0:	48 87       	std	Y+8, r20	; 0x08
    66f2:	59 87       	std	Y+9, r21	; 0x09
    66f4:	6a 87       	std	Y+10, r22	; 0x0a
    66f6:	7b 87       	std	Y+11, r23	; 0x0b
    66f8:	8e 81       	ldd	r24, Y+6	; 0x06
    66fa:	9f 81       	ldd	r25, Y+7	; 0x07
    66fc:	28 89       	ldd	r18, Y+16	; 0x10
    66fe:	39 89       	ldd	r19, Y+17	; 0x11
    6700:	f9 01       	movw	r30, r18
    6702:	20 81       	ld	r18, Z
    6704:	31 81       	ldd	r19, Z+1	; 0x01
    6706:	28 0f       	add	r18, r24
    6708:	39 1f       	adc	r19, r25
    670a:	88 89       	ldd	r24, Y+16	; 0x10
    670c:	99 89       	ldd	r25, Y+17	; 0x11
    670e:	fc 01       	movw	r30, r24
    6710:	31 83       	std	Z+1, r19	; 0x01
    6712:	20 83       	st	Z, r18
    6714:	89 81       	ldd	r24, Y+1	; 0x01
    6716:	8f 5f       	subi	r24, 0xFF	; 255
    6718:	89 83       	std	Y+1, r24	; 0x01
    671a:	89 81       	ldd	r24, Y+1	; 0x01
    671c:	8f 3f       	cpi	r24, 0xFF	; 255
    671e:	09 f0       	breq	.+2      	; 0x6722 <disp_get_text_metrics+0x12a>
    6720:	b5 cf       	rjmp	.-150    	; 0x668c <disp_get_text_metrics+0x94>
    6722:	03 c0       	rjmp	.+6      	; 0x672a <disp_get_text_metrics+0x132>
    6724:	00 00       	nop
    6726:	01 c0       	rjmp	.+2      	; 0x672a <disp_get_text_metrics+0x132>
    6728:	00 00       	nop
    672a:	63 96       	adiw	r28, 0x13	; 19
    672c:	0f b6       	in	r0, 0x3f	; 63
    672e:	f8 94       	cli
    6730:	de bf       	out	0x3e, r29	; 62
    6732:	0f be       	out	0x3f, r0	; 63
    6734:	cd bf       	out	0x3d, r28	; 61
    6736:	df 91       	pop	r29
    6738:	cf 91       	pop	r28
    673a:	1f 91       	pop	r17
    673c:	0f 91       	pop	r16
    673e:	ff 90       	pop	r15
    6740:	ef 90       	pop	r14
    6742:	df 90       	pop	r13
    6744:	cf 90       	pop	r12
    6746:	bf 90       	pop	r11
    6748:	af 90       	pop	r10
    674a:	08 95       	ret

0000674c <disp_clear>:

void disp_clear()
{
    674c:	cf 93       	push	r28
    674e:	df 93       	push	r29
    6750:	00 d0       	rcall	.+0      	; 0x6752 <disp_clear+0x6>
    6752:	cd b7       	in	r28, 0x3d	; 61
    6754:	de b7       	in	r29, 0x3e	; 62
    for (uint16_t i = 0; i < 1024; i++)
    6756:	1a 82       	std	Y+2, r1	; 0x02
    6758:	19 82       	std	Y+1, r1	; 0x01
    675a:	0b c0       	rjmp	.+22     	; 0x6772 <disp_clear+0x26>
        DisplayBuf[i] = 0;
    675c:	89 81       	ldd	r24, Y+1	; 0x01
    675e:	9a 81       	ldd	r25, Y+2	; 0x02
    6760:	89 59       	subi	r24, 0x99	; 153
    6762:	9e 4f       	sbci	r25, 0xFE	; 254
    6764:	fc 01       	movw	r30, r24
    6766:	10 82       	st	Z, r1
    return 0;
}

void disp_clear()
{
    for (uint16_t i = 0; i < 1024; i++)
    6768:	89 81       	ldd	r24, Y+1	; 0x01
    676a:	9a 81       	ldd	r25, Y+2	; 0x02
    676c:	01 96       	adiw	r24, 0x01	; 1
    676e:	9a 83       	std	Y+2, r25	; 0x02
    6770:	89 83       	std	Y+1, r24	; 0x01
    6772:	89 81       	ldd	r24, Y+1	; 0x01
    6774:	9a 81       	ldd	r25, Y+2	; 0x02
    6776:	81 15       	cp	r24, r1
    6778:	94 40       	sbci	r25, 0x04	; 4
    677a:	80 f3       	brcs	.-32     	; 0x675c <disp_clear+0x10>
        DisplayBuf[i] = 0;
}
    677c:	00 00       	nop
    677e:	0f 90       	pop	r0
    6780:	0f 90       	pop	r0
    6782:	df 91       	pop	r29
    6784:	cf 91       	pop	r28
    6786:	08 95       	ret

00006788 <main>:
    disp_set_font(disp, fontCalibri28pt);
    disp_draw_text(disp, 34, 14, txtTemp, 0);
}

int main()
{
    6788:	cf 93       	push	r28
    678a:	df 93       	push	r29
    678c:	00 d0       	rcall	.+0      	; 0x678e <main+0x6>
    678e:	cd b7       	in	r28, 0x3d	; 61
    6790:	de b7       	in	r29, 0x3e	; 62
    uint8_t i = 0;   
    6792:	19 82       	std	Y+1, r1	; 0x01
    bool down = true;
    6794:	81 e0       	ldi	r24, 0x01	; 1
    6796:	8a 83       	std	Y+2, r24	; 0x02
    view_init();
    6798:	0e 94 4d 34 	call	0x689a	; 0x689a <view_init>
    view_temp_set_screen();
    679c:	0e 94 4f 35 	call	0x6a9e	; 0x6a9e <view_temp_set_screen>
            menu_selection_up();
            i--;
            if (i == 0)
                down = true;   
        } */  
        view_update();             
    67a0:	0e 94 5c 34 	call	0x68b8	; 0x68b8 <view_update>
    }    
    67a4:	fd cf       	rjmp	.-6      	; 0x67a0 <main+0x18>

000067a6 <get_temp>:
void temp_set()
{    
}

uint16_t get_temp()
{
    67a6:	cf 93       	push	r28
    67a8:	df 93       	push	r29
    67aa:	cd b7       	in	r28, 0x3d	; 61
    67ac:	de b7       	in	r29, 0x3e	; 62
    return temp;
    67ae:	80 91 16 01 	lds	r24, 0x0116	; 0x800116 <temp>
    67b2:	90 91 17 01 	lds	r25, 0x0117	; 0x800117 <temp+0x1>
}
    67b6:	df 91       	pop	r29
    67b8:	cf 91       	pop	r28
    67ba:	08 95       	ret

000067bc <to_str>:
    dirtyFlag = true;
    dirtyArea.x = 0;
    dirtyArea.y = 13 + (menuSelection - menuFirstItem) * 12;
    dirtyArea.width = 128;
    dirtyArea.height = 12;
}
    67bc:	cf 93       	push	r28
    67be:	df 93       	push	r29
    67c0:	00 d0       	rcall	.+0      	; 0x67c2 <to_str+0x6>
    67c2:	00 d0       	rcall	.+0      	; 0x67c4 <to_str+0x8>
    67c4:	cd b7       	in	r28, 0x3d	; 61
    67c6:	de b7       	in	r29, 0x3e	; 62
    67c8:	9c 83       	std	Y+4, r25	; 0x04
    67ca:	8b 83       	std	Y+3, r24	; 0x03
    67cc:	81 e0       	ldi	r24, 0x01	; 1
    67ce:	89 83       	std	Y+1, r24	; 0x01
    67d0:	84 e0       	ldi	r24, 0x04	; 4
    67d2:	8a 83       	std	Y+2, r24	; 0x02
    67d4:	8b 81       	ldd	r24, Y+3	; 0x03
    67d6:	9c 81       	ldd	r25, Y+4	; 0x04
    67d8:	99 23       	and	r25, r25
    67da:	14 f4       	brge	.+4      	; 0x67e0 <to_str+0x24>
    67dc:	8f ef       	ldi	r24, 0xFF	; 255
    67de:	89 83       	std	Y+1, r24	; 0x01
    67e0:	8a 81       	ldd	r24, Y+2	; 0x02
    67e2:	e8 2f       	mov	r30, r24
    67e4:	88 0f       	add	r24, r24
    67e6:	ff 0b       	sbc	r31, r31
    67e8:	8b 81       	ldd	r24, Y+3	; 0x03
    67ea:	9c 81       	ldd	r25, Y+4	; 0x04
    67ec:	2a e0       	ldi	r18, 0x0A	; 10
    67ee:	30 e0       	ldi	r19, 0x00	; 0
    67f0:	b9 01       	movw	r22, r18
    67f2:	0e 94 86 35 	call	0x6b0c	; 0x6b0c <__divmodhi4>
    67f6:	ac 01       	movw	r20, r24
    67f8:	89 81       	ldd	r24, Y+1	; 0x01
    67fa:	28 2f       	mov	r18, r24
    67fc:	88 0f       	add	r24, r24
    67fe:	33 0b       	sbc	r19, r19
    6800:	42 9f       	mul	r20, r18
    6802:	c0 01       	movw	r24, r0
    6804:	43 9f       	mul	r20, r19
    6806:	90 0d       	add	r25, r0
    6808:	52 9f       	mul	r21, r18
    680a:	90 0d       	add	r25, r0
    680c:	11 24       	eor	r1, r1
    680e:	9c 01       	movw	r18, r24
    6810:	20 5d       	subi	r18, 0xD0	; 208
    6812:	3f 4f       	sbci	r19, 0xFF	; 255
    6814:	cf 01       	movw	r24, r30
    6816:	88 0f       	add	r24, r24
    6818:	99 1f       	adc	r25, r25
    681a:	85 5a       	subi	r24, 0xA5	; 165
    681c:	9e 4f       	sbci	r25, 0xFE	; 254
    681e:	fc 01       	movw	r30, r24
    6820:	31 83       	std	Z+1, r19	; 0x01
    6822:	20 83       	st	Z, r18
    6824:	8b 81       	ldd	r24, Y+3	; 0x03
    6826:	9c 81       	ldd	r25, Y+4	; 0x04
    6828:	2a e0       	ldi	r18, 0x0A	; 10
    682a:	30 e0       	ldi	r19, 0x00	; 0
    682c:	b9 01       	movw	r22, r18
    682e:	0e 94 86 35 	call	0x6b0c	; 0x6b0c <__divmodhi4>
    6832:	cb 01       	movw	r24, r22
    6834:	9c 83       	std	Y+4, r25	; 0x04
    6836:	8b 83       	std	Y+3, r24	; 0x03
    6838:	8a 81       	ldd	r24, Y+2	; 0x02
    683a:	81 50       	subi	r24, 0x01	; 1
    683c:	8a 83       	std	Y+2, r24	; 0x02
    683e:	8b 81       	ldd	r24, Y+3	; 0x03
    6840:	9c 81       	ldd	r25, Y+4	; 0x04
    6842:	18 16       	cp	r1, r24
    6844:	19 06       	cpc	r1, r25
    6846:	64 f2       	brlt	.-104    	; 0x67e0 <to_str+0x24>
    6848:	89 81       	ldd	r24, Y+1	; 0x01
    684a:	8f 3f       	cpi	r24, 0xFF	; 255
    684c:	b1 f4       	brne	.+44     	; 0x687a <to_str+0xbe>
    684e:	8a 81       	ldd	r24, Y+2	; 0x02
    6850:	08 2e       	mov	r0, r24
    6852:	00 0c       	add	r0, r0
    6854:	99 0b       	sbc	r25, r25
    6856:	88 0f       	add	r24, r24
    6858:	99 1f       	adc	r25, r25
    685a:	85 5a       	subi	r24, 0xA5	; 165
    685c:	9e 4f       	sbci	r25, 0xFE	; 254
    685e:	2d e2       	ldi	r18, 0x2D	; 45
    6860:	30 e0       	ldi	r19, 0x00	; 0
    6862:	fc 01       	movw	r30, r24
    6864:	31 83       	std	Z+1, r19	; 0x01
    6866:	20 83       	st	Z, r18
    6868:	8a 81       	ldd	r24, Y+2	; 0x02
    686a:	08 2e       	mov	r0, r24
    686c:	00 0c       	add	r0, r0
    686e:	99 0b       	sbc	r25, r25
    6870:	88 0f       	add	r24, r24
    6872:	99 1f       	adc	r25, r25
    6874:	85 5a       	subi	r24, 0xA5	; 165
    6876:	9e 4f       	sbci	r25, 0xFE	; 254
    6878:	09 c0       	rjmp	.+18     	; 0x688c <to_str+0xd0>
    687a:	8a 81       	ldd	r24, Y+2	; 0x02
    687c:	08 2e       	mov	r0, r24
    687e:	00 0c       	add	r0, r0
    6880:	99 0b       	sbc	r25, r25
    6882:	01 96       	adiw	r24, 0x01	; 1
    6884:	88 0f       	add	r24, r24
    6886:	99 1f       	adc	r25, r25
    6888:	85 5a       	subi	r24, 0xA5	; 165
    688a:	9e 4f       	sbci	r25, 0xFE	; 254
    688c:	0f 90       	pop	r0
    688e:	0f 90       	pop	r0
    6890:	0f 90       	pop	r0
    6892:	0f 90       	pop	r0
    6894:	df 91       	pop	r29
    6896:	cf 91       	pop	r28
    6898:	08 95       	ret

0000689a <view_init>:
    689a:	cf 93       	push	r28
    689c:	df 93       	push	r29
    689e:	cd b7       	in	r28, 0x3d	; 61
    68a0:	de b7       	in	r29, 0x3e	; 62
    68a2:	88 e7       	ldi	r24, 0x78	; 120
    68a4:	0e 94 93 2e 	call	0x5d26	; 0x5d26 <disp_init>
    68a8:	90 93 68 05 	sts	0x0568, r25	; 0x800568 <display+0x1>
    68ac:	80 93 67 05 	sts	0x0567, r24	; 0x800567 <display>
    68b0:	00 00       	nop
    68b2:	df 91       	pop	r29
    68b4:	cf 91       	pop	r28
    68b6:	08 95       	ret

000068b8 <view_update>:
    68b8:	cf 93       	push	r28
    68ba:	df 93       	push	r29
    68bc:	cd b7       	in	r28, 0x3d	; 61
    68be:	de b7       	in	r29, 0x3e	; 62
    68c0:	80 91 5a 01 	lds	r24, 0x015A	; 0x80015a <dirtyFlag>
    68c4:	88 23       	and	r24, r24
    68c6:	99 f0       	breq	.+38     	; 0x68ee <view_update+0x36>
    68c8:	20 91 67 05 	lds	r18, 0x0567	; 0x800567 <display>
    68cc:	30 91 68 05 	lds	r19, 0x0568	; 0x800568 <display+0x1>
    68d0:	80 91 6b 05 	lds	r24, 0x056B	; 0x80056b <dirtyArea>
    68d4:	90 91 6c 05 	lds	r25, 0x056C	; 0x80056c <dirtyArea+0x1>
    68d8:	a0 91 6d 05 	lds	r26, 0x056D	; 0x80056d <dirtyArea+0x2>
    68dc:	b0 91 6e 05 	lds	r27, 0x056E	; 0x80056e <dirtyArea+0x3>
    68e0:	ac 01       	movw	r20, r24
    68e2:	bd 01       	movw	r22, r26
    68e4:	c9 01       	movw	r24, r18
    68e6:	0e 94 e6 2e 	call	0x5dcc	; 0x5dcc <disp_refresh_rect>
    68ea:	10 92 5a 01 	sts	0x015A, r1	; 0x80015a <dirtyFlag>
    68ee:	00 00       	nop
    68f0:	df 91       	pop	r29
    68f2:	cf 91       	pop	r28
    68f4:	08 95       	ret

000068f6 <on_draw_temp_screen>:

void on_draw_temp_screen(disp_handle_t disp)
{
    68f6:	0f 93       	push	r16
    68f8:	cf 93       	push	r28
    68fa:	df 93       	push	r29
    68fc:	cd b7       	in	r28, 0x3d	; 61
    68fe:	de b7       	in	r29, 0x3e	; 62
    6900:	62 97       	sbiw	r28, 0x12	; 18
    6902:	0f b6       	in	r0, 0x3f	; 63
    6904:	f8 94       	cli
    6906:	de bf       	out	0x3e, r29	; 62
    6908:	0f be       	out	0x3f, r0	; 63
    690a:	cd bf       	out	0x3d, r28	; 61
    690c:	9a 8b       	std	Y+18, r25	; 0x12
    690e:	89 8b       	std	Y+17, r24	; 0x11
    uint16_t textWidth;
    wchar_t tempStr[6] = {0};
    6910:	2c e0       	ldi	r18, 0x0C	; 12
    6912:	ce 01       	movw	r24, r28
    6914:	05 96       	adiw	r24, 0x05	; 5
    6916:	fc 01       	movw	r30, r24
    6918:	32 2f       	mov	r19, r18
    691a:	11 92       	st	Z+, r1
    691c:	3a 95       	dec	r19
    691e:	e9 f7       	brne	.-6      	; 0x691a <on_draw_temp_screen+0x24>
    wchar_t* measuredTemp = to_str(get_temp());
    6920:	0e 94 d3 33 	call	0x67a6	; 0x67a6 <get_temp>
    6924:	0e 94 de 33 	call	0x67bc	; 0x67bc <to_str>
    6928:	9a 83       	std	Y+2, r25	; 0x02
    692a:	89 83       	std	Y+1, r24	; 0x01
    tempStr[0] = measuredTemp[0];
    692c:	89 81       	ldd	r24, Y+1	; 0x01
    692e:	9a 81       	ldd	r25, Y+2	; 0x02
    6930:	fc 01       	movw	r30, r24
    6932:	80 81       	ld	r24, Z
    6934:	91 81       	ldd	r25, Z+1	; 0x01
    6936:	9e 83       	std	Y+6, r25	; 0x06
    6938:	8d 83       	std	Y+5, r24	; 0x05
    tempStr[1] = measuredTemp[1];
    693a:	89 81       	ldd	r24, Y+1	; 0x01
    693c:	9a 81       	ldd	r25, Y+2	; 0x02
    693e:	fc 01       	movw	r30, r24
    6940:	82 81       	ldd	r24, Z+2	; 0x02
    6942:	93 81       	ldd	r25, Z+3	; 0x03
    6944:	98 87       	std	Y+8, r25	; 0x08
    6946:	8f 83       	std	Y+7, r24	; 0x07
    tempStr[2] = measuredTemp[2];
    6948:	89 81       	ldd	r24, Y+1	; 0x01
    694a:	9a 81       	ldd	r25, Y+2	; 0x02
    694c:	fc 01       	movw	r30, r24
    694e:	84 81       	ldd	r24, Z+4	; 0x04
    6950:	95 81       	ldd	r25, Z+5	; 0x05
    6952:	9a 87       	std	Y+10, r25	; 0x0a
    6954:	89 87       	std	Y+9, r24	; 0x09
    tempStr[3] = L'C';
    6956:	83 e4       	ldi	r24, 0x43	; 67
    6958:	90 e0       	ldi	r25, 0x00	; 0
    695a:	9c 87       	std	Y+12, r25	; 0x0c
    695c:	8b 87       	std	Y+11, r24	; 0x0b
    tempStr[4] = L'';
    695e:	80 eb       	ldi	r24, 0xB0	; 176
    6960:	90 e0       	ldi	r25, 0x00	; 0
    6962:	9e 87       	std	Y+14, r25	; 0x0e
    6964:	8d 87       	std	Y+13, r24	; 0x0d
    
    disp_set_font(disp, fontMSSansSerif8pt);
    6966:	89 89       	ldd	r24, Y+17	; 0x11
    6968:	9a 89       	ldd	r25, Y+18	; 0x12
    696a:	68 e3       	ldi	r22, 0x38	; 56
    696c:	78 e4       	ldi	r23, 0x48	; 72
    696e:	0e 94 37 2f 	call	0x5e6e	; 0x5e6e <disp_set_font>
    disp_get_text_metrics(disp, str_Temperature, &textWidth, NULL);
    6972:	ae 01       	movw	r20, r28
    6974:	4d 5f       	subi	r20, 0xFD	; 253
    6976:	5f 4f       	sbci	r21, 0xFF	; 255
    6978:	89 89       	ldd	r24, Y+17	; 0x11
    697a:	9a 89       	ldd	r25, Y+18	; 0x12
    697c:	20 e0       	ldi	r18, 0x00	; 0
    697e:	30 e0       	ldi	r19, 0x00	; 0
    6980:	6c e1       	ldi	r22, 0x1C	; 28
    6982:	71 e0       	ldi	r23, 0x01	; 1
    6984:	0e 94 fc 32 	call	0x65f8	; 0x65f8 <disp_get_text_metrics>
    disp_draw_text(disp, (128 - textWidth) / 2, 0, str_Temperature, 0);
    6988:	8b 81       	ldd	r24, Y+3	; 0x03
    698a:	9c 81       	ldd	r25, Y+4	; 0x04
    698c:	20 e8       	ldi	r18, 0x80	; 128
    698e:	30 e0       	ldi	r19, 0x00	; 0
    6990:	a9 01       	movw	r20, r18
    6992:	48 1b       	sub	r20, r24
    6994:	59 0b       	sbc	r21, r25
    6996:	ca 01       	movw	r24, r20
    6998:	96 95       	lsr	r25
    699a:	87 95       	ror	r24
    699c:	58 2f       	mov	r21, r24
    699e:	89 89       	ldd	r24, Y+17	; 0x11
    69a0:	9a 89       	ldd	r25, Y+18	; 0x12
    69a2:	00 e0       	ldi	r16, 0x00	; 0
    69a4:	2c e1       	ldi	r18, 0x1C	; 28
    69a6:	31 e0       	ldi	r19, 0x01	; 1
    69a8:	40 e0       	ldi	r20, 0x00	; 0
    69aa:	65 2f       	mov	r22, r21
    69ac:	0e 94 56 32 	call	0x64ac	; 0x64ac <disp_draw_text>
    disp_get_text_metrics(disp, str_Finish, &textWidth, NULL);
    69b0:	ae 01       	movw	r20, r28
    69b2:	4d 5f       	subi	r20, 0xFD	; 253
    69b4:	5f 4f       	sbci	r21, 0xFF	; 255
    69b6:	89 89       	ldd	r24, Y+17	; 0x11
    69b8:	9a 89       	ldd	r25, Y+18	; 0x12
    69ba:	20 e0       	ldi	r18, 0x00	; 0
    69bc:	30 e0       	ldi	r19, 0x00	; 0
    69be:	68 e3       	ldi	r22, 0x38	; 56
    69c0:	71 e0       	ldi	r23, 0x01	; 1
    69c2:	0e 94 fc 32 	call	0x65f8	; 0x65f8 <disp_get_text_metrics>
    disp_draw_text(disp, (128 - textWidth) / 2, 49, str_Finish, 0);
    69c6:	8b 81       	ldd	r24, Y+3	; 0x03
    69c8:	9c 81       	ldd	r25, Y+4	; 0x04
    69ca:	20 e8       	ldi	r18, 0x80	; 128
    69cc:	30 e0       	ldi	r19, 0x00	; 0
    69ce:	f9 01       	movw	r30, r18
    69d0:	e8 1b       	sub	r30, r24
    69d2:	f9 0b       	sbc	r31, r25
    69d4:	cf 01       	movw	r24, r30
    69d6:	96 95       	lsr	r25
    69d8:	87 95       	ror	r24
    69da:	58 2f       	mov	r21, r24
    69dc:	89 89       	ldd	r24, Y+17	; 0x11
    69de:	9a 89       	ldd	r25, Y+18	; 0x12
    69e0:	00 e0       	ldi	r16, 0x00	; 0
    69e2:	28 e3       	ldi	r18, 0x38	; 56
    69e4:	31 e0       	ldi	r19, 0x01	; 1
    69e6:	41 e3       	ldi	r20, 0x31	; 49
    69e8:	65 2f       	mov	r22, r21
    69ea:	0e 94 56 32 	call	0x64ac	; 0x64ac <disp_draw_text>
    disp_draw_bitmap(disp, bmpClick, (106 - textWidth) / 2, 50, 0);
    69ee:	8b 81       	ldd	r24, Y+3	; 0x03
    69f0:	9c 81       	ldd	r25, Y+4	; 0x04
    69f2:	2a e6       	ldi	r18, 0x6A	; 106
    69f4:	30 e0       	ldi	r19, 0x00	; 0
    69f6:	a9 01       	movw	r20, r18
    69f8:	48 1b       	sub	r20, r24
    69fa:	59 0b       	sbc	r21, r25
    69fc:	ca 01       	movw	r24, r20
    69fe:	96 95       	lsr	r25
    6a00:	87 95       	ror	r24
    6a02:	38 2f       	mov	r19, r24
    6a04:	89 89       	ldd	r24, Y+17	; 0x11
    6a06:	9a 89       	ldd	r25, Y+18	; 0x12
    6a08:	00 e0       	ldi	r16, 0x00	; 0
    6a0a:	22 e3       	ldi	r18, 0x32	; 50
    6a0c:	43 2f       	mov	r20, r19
    6a0e:	66 e2       	ldi	r22, 0x26	; 38
    6a10:	78 e4       	ldi	r23, 0x48	; 72
    6a12:	0e 94 92 30 	call	0x6124	; 0x6124 <disp_draw_bitmap>
    disp_set_font(disp, fontCalibri28pt);
    6a16:	89 89       	ldd	r24, Y+17	; 0x11
    6a18:	9a 89       	ldd	r25, Y+18	; 0x12
    6a1a:	68 e6       	ldi	r22, 0x68	; 104
    6a1c:	70 e0       	ldi	r23, 0x00	; 0
    6a1e:	0e 94 37 2f 	call	0x5e6e	; 0x5e6e <disp_set_font>
    disp_get_text_metrics(disp, tempStr, &textWidth, NULL);
    6a22:	ae 01       	movw	r20, r28
    6a24:	4d 5f       	subi	r20, 0xFD	; 253
    6a26:	5f 4f       	sbci	r21, 0xFF	; 255
    6a28:	be 01       	movw	r22, r28
    6a2a:	6b 5f       	subi	r22, 0xFB	; 251
    6a2c:	7f 4f       	sbci	r23, 0xFF	; 255
    6a2e:	89 89       	ldd	r24, Y+17	; 0x11
    6a30:	9a 89       	ldd	r25, Y+18	; 0x12
    6a32:	20 e0       	ldi	r18, 0x00	; 0
    6a34:	30 e0       	ldi	r19, 0x00	; 0
    6a36:	0e 94 fc 32 	call	0x65f8	; 0x65f8 <disp_get_text_metrics>
    disp_draw_text(disp, (128 - textWidth) / 2, 14, tempStr, 0);
    6a3a:	8b 81       	ldd	r24, Y+3	; 0x03
    6a3c:	9c 81       	ldd	r25, Y+4	; 0x04
    6a3e:	20 e8       	ldi	r18, 0x80	; 128
    6a40:	30 e0       	ldi	r19, 0x00	; 0
    6a42:	f9 01       	movw	r30, r18
    6a44:	e8 1b       	sub	r30, r24
    6a46:	f9 0b       	sbc	r31, r25
    6a48:	cf 01       	movw	r24, r30
    6a4a:	96 95       	lsr	r25
    6a4c:	87 95       	ror	r24
    6a4e:	58 2f       	mov	r21, r24
    6a50:	9e 01       	movw	r18, r28
    6a52:	2b 5f       	subi	r18, 0xFB	; 251
    6a54:	3f 4f       	sbci	r19, 0xFF	; 255
    6a56:	89 89       	ldd	r24, Y+17	; 0x11
    6a58:	9a 89       	ldd	r25, Y+18	; 0x12
    6a5a:	00 e0       	ldi	r16, 0x00	; 0
    6a5c:	4e e0       	ldi	r20, 0x0E	; 14
    6a5e:	65 2f       	mov	r22, r21
    6a60:	0e 94 56 32 	call	0x64ac	; 0x64ac <disp_draw_text>
    disp_draw_bitmap(disp, bmpArrowLeft, 2, 25, 0);
    6a64:	89 89       	ldd	r24, Y+17	; 0x11
    6a66:	9a 89       	ldd	r25, Y+18	; 0x12
    6a68:	00 e0       	ldi	r16, 0x00	; 0
    6a6a:	29 e1       	ldi	r18, 0x19	; 25
    6a6c:	42 e0       	ldi	r20, 0x02	; 2
    6a6e:	6e ef       	ldi	r22, 0xFE	; 254
    6a70:	77 e4       	ldi	r23, 0x47	; 71
    6a72:	0e 94 92 30 	call	0x6124	; 0x6124 <disp_draw_bitmap>
    disp_draw_bitmap(disp, bmpArrowRight, 113, 25, 0);
    6a76:	89 89       	ldd	r24, Y+17	; 0x11
    6a78:	9a 89       	ldd	r25, Y+18	; 0x12
    6a7a:	00 e0       	ldi	r16, 0x00	; 0
    6a7c:	29 e1       	ldi	r18, 0x19	; 25
    6a7e:	41 e7       	ldi	r20, 0x71	; 113
    6a80:	62 e1       	ldi	r22, 0x12	; 18
    6a82:	78 e4       	ldi	r23, 0x48	; 72
    6a84:	0e 94 92 30 	call	0x6124	; 0x6124 <disp_draw_bitmap>
}
    6a88:	00 00       	nop
    6a8a:	62 96       	adiw	r28, 0x12	; 18
    6a8c:	0f b6       	in	r0, 0x3f	; 63
    6a8e:	f8 94       	cli
    6a90:	de bf       	out	0x3e, r29	; 62
    6a92:	0f be       	out	0x3f, r0	; 63
    6a94:	cd bf       	out	0x3d, r28	; 61
    6a96:	df 91       	pop	r29
    6a98:	cf 91       	pop	r28
    6a9a:	0f 91       	pop	r16
    6a9c:	08 95       	ret

00006a9e <view_temp_set_screen>:

void view_temp_set_screen()
{
    6a9e:	cf 93       	push	r28
    6aa0:	df 93       	push	r29
    6aa2:	cd b7       	in	r28, 0x3d	; 61
    6aa4:	de b7       	in	r29, 0x3e	; 62
    dirtyFlag = true;
    6aa6:	81 e0       	ldi	r24, 0x01	; 1
    6aa8:	80 93 5a 01 	sts	0x015A, r24	; 0x80015a <dirtyFlag>
    dirtyArea = DISPLAY_FULL;
    6aac:	80 91 18 01 	lds	r24, 0x0118	; 0x800118 <DISPLAY_FULL>
    6ab0:	90 91 19 01 	lds	r25, 0x0119	; 0x800119 <DISPLAY_FULL+0x1>
    6ab4:	a0 91 1a 01 	lds	r26, 0x011A	; 0x80011a <DISPLAY_FULL+0x2>
    6ab8:	b0 91 1b 01 	lds	r27, 0x011B	; 0x80011b <DISPLAY_FULL+0x3>
    6abc:	80 93 6b 05 	sts	0x056B, r24	; 0x80056b <dirtyArea>
    6ac0:	90 93 6c 05 	sts	0x056C, r25	; 0x80056c <dirtyArea+0x1>
    6ac4:	a0 93 6d 05 	sts	0x056D, r26	; 0x80056d <dirtyArea+0x2>
    6ac8:	b0 93 6e 05 	sts	0x056E, r27	; 0x80056e <dirtyArea+0x3>
    disp_set_paint_handler(display, &on_draw_temp_screen);
    6acc:	80 91 67 05 	lds	r24, 0x0567	; 0x800567 <display>
    6ad0:	90 91 68 05 	lds	r25, 0x0568	; 0x800568 <display+0x1>
    6ad4:	6b e7       	ldi	r22, 0x7B	; 123
    6ad6:	74 e3       	ldi	r23, 0x34	; 52
    6ad8:	0e 94 1e 2f 	call	0x5e3c	; 0x5e3c <disp_set_paint_handler>
}
    6adc:	00 00       	nop
    6ade:	df 91       	pop	r29
    6ae0:	cf 91       	pop	r28
    6ae2:	08 95       	ret

00006ae4 <__udivmodhi4>:
    6ae4:	aa 1b       	sub	r26, r26
    6ae6:	bb 1b       	sub	r27, r27
    6ae8:	51 e1       	ldi	r21, 0x11	; 17
    6aea:	07 c0       	rjmp	.+14     	; 0x6afa <__udivmodhi4_ep>

00006aec <__udivmodhi4_loop>:
    6aec:	aa 1f       	adc	r26, r26
    6aee:	bb 1f       	adc	r27, r27
    6af0:	a6 17       	cp	r26, r22
    6af2:	b7 07       	cpc	r27, r23
    6af4:	10 f0       	brcs	.+4      	; 0x6afa <__udivmodhi4_ep>
    6af6:	a6 1b       	sub	r26, r22
    6af8:	b7 0b       	sbc	r27, r23

00006afa <__udivmodhi4_ep>:
    6afa:	88 1f       	adc	r24, r24
    6afc:	99 1f       	adc	r25, r25
    6afe:	5a 95       	dec	r21
    6b00:	a9 f7       	brne	.-22     	; 0x6aec <__udivmodhi4_loop>
    6b02:	80 95       	com	r24
    6b04:	90 95       	com	r25
    6b06:	bc 01       	movw	r22, r24
    6b08:	cd 01       	movw	r24, r26
    6b0a:	08 95       	ret

00006b0c <__divmodhi4>:
    6b0c:	97 fb       	bst	r25, 7
    6b0e:	07 2e       	mov	r0, r23
    6b10:	16 f4       	brtc	.+4      	; 0x6b16 <__divmodhi4+0xa>
    6b12:	00 94       	com	r0
    6b14:	07 d0       	rcall	.+14     	; 0x6b24 <__divmodhi4_neg1>
    6b16:	77 fd       	sbrc	r23, 7
    6b18:	09 d0       	rcall	.+18     	; 0x6b2c <__divmodhi4_neg2>
    6b1a:	0e 94 72 35 	call	0x6ae4	; 0x6ae4 <__udivmodhi4>
    6b1e:	07 fc       	sbrc	r0, 7
    6b20:	05 d0       	rcall	.+10     	; 0x6b2c <__divmodhi4_neg2>
    6b22:	3e f4       	brtc	.+14     	; 0x6b32 <__divmodhi4_exit>

00006b24 <__divmodhi4_neg1>:
    6b24:	90 95       	com	r25
    6b26:	81 95       	neg	r24
    6b28:	9f 4f       	sbci	r25, 0xFF	; 255
    6b2a:	08 95       	ret

00006b2c <__divmodhi4_neg2>:
    6b2c:	70 95       	com	r23
    6b2e:	61 95       	neg	r22
    6b30:	7f 4f       	sbci	r23, 0xFF	; 255

00006b32 <__divmodhi4_exit>:
    6b32:	08 95       	ret

00006b34 <_exit>:
    6b34:	f8 94       	cli

00006b36 <__stop_program>:
    6b36:	ff cf       	rjmp	.-2      	; 0x6b36 <__stop_program>
